(dp0
S't_log'
p1
(lp2
I60000
aI70000
aI80000
aI90000
aI100000
aI110000
aI120000
aI130000
aI140000
aI150000
aI160000
aI170000
aI180000
aI190000
aI200000
aI210000
aI220000
aI230000
aI240000
aI250000
aI260000
aI270000
aI280000
aI290000
aI300000
aI310000
aI320000
aI330000
aI340000
aI350000
aI360000
aI370000
aI380000
aI390000
aI400000
aI410000
aI420000
aI430000
aI440000
aI450000
aI460000
aI470000
aI480000
aI490000
aI500000
aI510000
aI520000
aI530000
aI540000
aI550000
aI560000
aI570000
aI580000
aI590000
aI600000
aI610000
aI620000
aI630000
aI640000
aI650000
aI660000
aI670000
aI680000
aI690000
aI700000
aI710000
aI720000
aI730000
aI740000
aI750000
aI760000
aI770000
aI780000
aI790000
aI800000
aI810000
aI820000
aI830000
aI840000
aI850000
aI860000
aI870000
aI880000
aI890000
aI900000
aI910000
aI920000
aI930000
aI940000
aI950000
aI960000
aI970000
aI980000
aI990000
aI1000000
aI1010000
aI1020000
aI1030000
aI1040000
aI1050000
aI1060000
aI1070000
aI1080000
aI1090000
aI1100000
aI1110000
aI1120000
aI1130000
aI1140000
aI1150000
aI1160000
aI1170000
aI1180000
aI1190000
aI1200000
aI1210000
aI1220000
aI1230000
aI1240000
aI1250000
aI1260000
aI1270000
aI1280000
aI1290000
aI1300000
aI1310000
aI1320000
aI1330000
aI1340000
aI1350000
aI1360000
aI1370000
aI1380000
aI1390000
aI1400000
asS'mean_reward_log'
p3
(lp4
cnumpy.core.multiarray
scalar
p5
(cnumpy
dtype
p6
(S'f8'
p7
I0
I1
tp8
Rp9
(I3
S'<'
p10
NNNI-1
I-1
I0
tp11
bS'\xae\xecsHM04\xc0'
p12
tp13
Rp14
ag5
(g9
S'\xae\xecsHM04\xc0'
p15
tp16
Rp17
ag5
(g9
S'\xae\xecsHM04\xc0'
p18
tp19
Rp20
ag5
(g9
S'\xae\xecsHM04\xc0'
p21
tp22
Rp23
ag5
(g9
S'\xae\xecsHM04\xc0'
p24
tp25
Rp26
ag5
(g9
S'\xae\xecsHM04\xc0'
p27
tp28
Rp29
ag5
(g9
S'\xae\xecsHM04\xc0'
p30
tp31
Rp32
ag5
(g9
S'\xae\xecsHM04\xc0'
p33
tp34
Rp35
ag5
(g9
S'\xae\xecsHM04\xc0'
p36
tp37
Rp38
ag5
(g9
S'\xae\xecsHM04\xc0'
p39
tp40
Rp41
ag5
(g9
S'\xae\xecsHM04\xc0'
p42
tp43
Rp44
ag5
(g9
S'\xae\xecsHM04\xc0'
p45
tp46
Rp47
ag5
(g9
S'\xae\xecsHM04\xc0'
p48
tp49
Rp50
ag5
(g9
S'\xae\xecsHM04\xc0'
p51
tp52
Rp53
ag5
(g9
S'\xae\xecsHM04\xc0'
p54
tp55
Rp56
ag5
(g9
S'\xae\xecsHM04\xc0'
p57
tp58
Rp59
ag5
(g9
S'\xae\xecsHM04\xc0'
p60
tp61
Rp62
ag5
(g9
S'\xae\xecsHM04\xc0'
p63
tp64
Rp65
ag5
(g9
S'\xae\xecsHM04\xc0'
p66
tp67
Rp68
ag5
(g9
S'\xae\xecsHM04\xc0'
p69
tp70
Rp71
ag5
(g9
S'\xae\xecsHM04\xc0'
p72
tp73
Rp74
ag5
(g9
S'\xae\xecsHM04\xc0'
p75
tp76
Rp77
ag5
(g9
S'\xae\xecsHM04\xc0'
p78
tp79
Rp80
ag5
(g9
S'\xae\xecsHM04\xc0'
p81
tp82
Rp83
ag5
(g9
S'\xae\xecsHM04\xc0'
p84
tp85
Rp86
ag5
(g9
S'\xae\xecsHM04\xc0'
p87
tp88
Rp89
ag5
(g9
S'\xae\xecsHM04\xc0'
p90
tp91
Rp92
ag5
(g9
S'\xae\xecsHM04\xc0'
p93
tp94
Rp95
ag5
(g9
S'\xae\xecsHM04\xc0'
p96
tp97
Rp98
ag5
(g9
S'\xae\xecsHM04\xc0'
p99
tp100
Rp101
ag5
(g9
S'\xae\xecsHM04\xc0'
p102
tp103
Rp104
ag5
(g9
S'\xae\xecsHM04\xc0'
p105
tp106
Rp107
ag5
(g9
S'\xae\xecsHM04\xc0'
p108
tp109
Rp110
ag5
(g9
S'\xae\xecsHM04\xc0'
p111
tp112
Rp113
ag5
(g9
S'\xae\xecsHM04\xc0'
p114
tp115
Rp116
ag5
(g9
S'\xae\xecsHM04\xc0'
p117
tp118
Rp119
ag5
(g9
S'\xae\xecsHM04\xc0'
p120
tp121
Rp122
ag5
(g9
S'\xae\xecsHM04\xc0'
p123
tp124
Rp125
ag5
(g9
S'\xae\xecsHM04\xc0'
p126
tp127
Rp128
ag5
(g9
S'\xae\xecsHM04\xc0'
p129
tp130
Rp131
ag5
(g9
S'\xae\xecsHM04\xc0'
p132
tp133
Rp134
ag5
(g9
S'\xae\xecsHM04\xc0'
p135
tp136
Rp137
ag5
(g9
S'\xae\xecsHM04\xc0'
p138
tp139
Rp140
ag5
(g9
S'\xae\xecsHM04\xc0'
p141
tp142
Rp143
ag5
(g9
S'\xae\xecsHM04\xc0'
p144
tp145
Rp146
ag5
(g9
S'\xae\xecsHM04\xc0'
p147
tp148
Rp149
ag5
(g9
S'\xae\xecsHM04\xc0'
p150
tp151
Rp152
ag5
(g9
S'\xae\xecsHM04\xc0'
p153
tp154
Rp155
ag5
(g9
S'\xae\xecsHM04\xc0'
p156
tp157
Rp158
ag5
(g9
S'\xae\xecsHM04\xc0'
p159
tp160
Rp161
ag5
(g9
S'\xae\xecsHM04\xc0'
p162
tp163
Rp164
ag5
(g9
S'\xae\xecsHM04\xc0'
p165
tp166
Rp167
ag5
(g9
S'\xae\xecsHM04\xc0'
p168
tp169
Rp170
ag5
(g9
S'\xae\xecsHM04\xc0'
p171
tp172
Rp173
ag5
(g9
S'\xae\xecsHM04\xc0'
p174
tp175
Rp176
ag5
(g9
S'\xae\xecsHM04\xc0'
p177
tp178
Rp179
ag5
(g9
S'\xae\xecsHM04\xc0'
p180
tp181
Rp182
ag5
(g9
S'\xae\xecsHM04\xc0'
p183
tp184
Rp185
ag5
(g9
S'\xae\xecsHM04\xc0'
p186
tp187
Rp188
ag5
(g9
S'\xae\xecsHM04\xc0'
p189
tp190
Rp191
ag5
(g9
S'\xae\xecsHM04\xc0'
p192
tp193
Rp194
ag5
(g9
S'\xae\xecsHM04\xc0'
p195
tp196
Rp197
ag5
(g9
S'\xae\xecsHM04\xc0'
p198
tp199
Rp200
ag5
(g9
S'\xae\xecsHM04\xc0'
p201
tp202
Rp203
ag5
(g9
S'\xae\xecsHM04\xc0'
p204
tp205
Rp206
ag5
(g9
S'\xae\xecsHM04\xc0'
p207
tp208
Rp209
ag5
(g9
S'\xae\xecsHM04\xc0'
p210
tp211
Rp212
ag5
(g9
S'\xae\xecsHM04\xc0'
p213
tp214
Rp215
ag5
(g9
S'\xae\xecsHM04\xc0'
p216
tp217
Rp218
ag5
(g9
S'\xae\xecsHM04\xc0'
p219
tp220
Rp221
ag5
(g9
S'\xae\xecsHM04\xc0'
p222
tp223
Rp224
ag5
(g9
S'\xae\xecsHM04\xc0'
p225
tp226
Rp227
ag5
(g9
S'\xae\xecsHM04\xc0'
p228
tp229
Rp230
ag5
(g9
S'\xae\xecsHM04\xc0'
p231
tp232
Rp233
ag5
(g9
S'\xae\xecsHM04\xc0'
p234
tp235
Rp236
ag5
(g9
S'\xae\xecsHM04\xc0'
p237
tp238
Rp239
ag5
(g9
S'\xae\xecsHM04\xc0'
p240
tp241
Rp242
ag5
(g9
S'\xae\xecsHM04\xc0'
p243
tp244
Rp245
ag5
(g9
S'\xae\xecsHM04\xc0'
p246
tp247
Rp248
ag5
(g9
S'\xae\xecsHM04\xc0'
p249
tp250
Rp251
ag5
(g9
S'\xae\xecsHM04\xc0'
p252
tp253
Rp254
ag5
(g9
S'\xae\xecsHM04\xc0'
p255
tp256
Rp257
ag5
(g9
S'\xae\xecsHM04\xc0'
p258
tp259
Rp260
ag5
(g9
S'\xae\xecsHM04\xc0'
p261
tp262
Rp263
ag5
(g9
S'\xae\xecsHM04\xc0'
p264
tp265
Rp266
ag5
(g9
S'\xae\xecsHM04\xc0'
p267
tp268
Rp269
ag5
(g9
S'\xae\xecsHM04\xc0'
p270
tp271
Rp272
ag5
(g9
S'\xae\xecsHM04\xc0'
p273
tp274
Rp275
ag5
(g9
S'\xae\xecsHM04\xc0'
p276
tp277
Rp278
ag5
(g9
S'\xae\xecsHM04\xc0'
p279
tp280
Rp281
ag5
(g9
S'\xae\xecsHM04\xc0'
p282
tp283
Rp284
ag5
(g9
S'\xae\xecsHM04\xc0'
p285
tp286
Rp287
ag5
(g9
S'\xae\xecsHM04\xc0'
p288
tp289
Rp290
ag5
(g9
S'\xae\xecsHM04\xc0'
p291
tp292
Rp293
ag5
(g9
S'\xae\xecsHM04\xc0'
p294
tp295
Rp296
ag5
(g9
S'\xae\xecsHM04\xc0'
p297
tp298
Rp299
ag5
(g9
S'\xae\xecsHM04\xc0'
p300
tp301
Rp302
ag5
(g9
S'\xae\xecsHM04\xc0'
p303
tp304
Rp305
ag5
(g9
S'\xae\xecsHM04\xc0'
p306
tp307
Rp308
ag5
(g9
S'\xae\xecsHM04\xc0'
p309
tp310
Rp311
ag5
(g9
S'\xae\xecsHM04\xc0'
p312
tp313
Rp314
ag5
(g9
S'\xae\xecsHM04\xc0'
p315
tp316
Rp317
ag5
(g9
S'\xae\xecsHM04\xc0'
p318
tp319
Rp320
ag5
(g9
S'\xae\xecsHM04\xc0'
p321
tp322
Rp323
ag5
(g9
S'\xae\xecsHM04\xc0'
p324
tp325
Rp326
ag5
(g9
S'\xae\xecsHM04\xc0'
p327
tp328
Rp329
ag5
(g9
S'\xae\xecsHM04\xc0'
p330
tp331
Rp332
ag5
(g9
S'\xae\xecsHM04\xc0'
p333
tp334
Rp335
ag5
(g9
S'\xae\xecsHM04\xc0'
p336
tp337
Rp338
ag5
(g9
S'\xae\xecsHM04\xc0'
p339
tp340
Rp341
ag5
(g9
S'\xae\xecsHM04\xc0'
p342
tp343
Rp344
ag5
(g9
S'\xae\xecsHM04\xc0'
p345
tp346
Rp347
ag5
(g9
S'\xae\xecsHM04\xc0'
p348
tp349
Rp350
ag5
(g9
S'\xae\xecsHM04\xc0'
p351
tp352
Rp353
ag5
(g9
S'\xae\xecsHM04\xc0'
p354
tp355
Rp356
ag5
(g9
S'\xae\xecsHM04\xc0'
p357
tp358
Rp359
ag5
(g9
S'\xae\xecsHM04\xc0'
p360
tp361
Rp362
ag5
(g9
S'\xae\xecsHM04\xc0'
p363
tp364
Rp365
ag5
(g9
S'\xae\xecsHM04\xc0'
p366
tp367
Rp368
ag5
(g9
S'\xae\xecsHM04\xc0'
p369
tp370
Rp371
ag5
(g9
S'\xae\xecsHM04\xc0'
p372
tp373
Rp374
ag5
(g9
S'\xae\xecsHM04\xc0'
p375
tp376
Rp377
ag5
(g9
S'\xae\xecsHM04\xc0'
p378
tp379
Rp380
ag5
(g9
S'\xae\xecsHM04\xc0'
p381
tp382
Rp383
ag5
(g9
S'\xae\xecsHM04\xc0'
p384
tp385
Rp386
ag5
(g9
S'\xae\xecsHM04\xc0'
p387
tp388
Rp389
ag5
(g9
S'\xae\xecsHM04\xc0'
p390
tp391
Rp392
ag5
(g9
S'\xae\xecsHM04\xc0'
p393
tp394
Rp395
ag5
(g9
S'\xae\xecsHM04\xc0'
p396
tp397
Rp398
ag5
(g9
S'\xae\xecsHM04\xc0'
p399
tp400
Rp401
ag5
(g9
S'\xae\xecsHM04\xc0'
p402
tp403
Rp404
ag5
(g9
S'\xae\xecsHM04\xc0'
p405
tp406
Rp407
ag5
(g9
S'\xae\xecsHM04\xc0'
p408
tp409
Rp410
ag5
(g9
S'\xae\xecsHM04\xc0'
p411
tp412
Rp413
ag5
(g9
S'\xae\xecsHM04\xc0'
p414
tp415
Rp416
asS'learning_rate_log'
p417
(lp418
F0.0001
aF0.0001
aF0.0001
aF0.0001
aF0.0001
aF0.0001
aF0.0001
aF0.0001
aF0.0001
aF0.0001
aF0.0001
aF0.0001
aF0.0001
aF0.0001
aF0.0001
aF0.0001
aF0.0001
aF0.0001
aF0.0001
aF0.0001
aF0.0001
aF0.0001
aF0.0001
aF0.0001
aF0.0001
aF0.0001
aF0.0001
aF0.0001
aF0.0001
aF0.0001
aF0.0001
aF0.0001
aF0.0001
aF0.0001
aF0.0001
aF0.0001
aF0.0001
aF0.0001
aF0.0001
aF0.0001
aF0.0001
aF0.0001
aF0.0001
aF0.0001
aF0.0001
aF0.0001
aF0.0001
aF0.0001
aF0.0001
aF0.0001
aF0.0001
aF0.0001
aF0.0001
aF0.0001
aF0.0001
aF0.0001
aF0.0001
aF0.0001
aF0.0001
aF0.0001
aF0.0001
aF0.0001
aF0.0001
aF0.0001
aF0.0001
aF0.0001
aF0.0001
aF0.0001
aF0.0001
aF0.0001
aF0.0001
aF0.0001
aF0.0001
aF0.0001
aF0.0001
aF0.0001
aF0.0001
aF0.0001
aF0.0001
aF0.0001
aF0.0001
aF0.0001
aF0.0001
aF0.0001
aF0.0001
aF0.0001
aF0.0001
aF0.0001
aF0.0001
aF0.0001
aF0.0001
aF0.0001
aF0.0001
aF0.0001
aF0.0001
aF9.9875e-05
aF9.975e-05
aF9.962500000000001e-05
aF9.95e-05
aF9.9375e-05
aF9.925e-05
aF9.912500000000001e-05
aF9.900000000000001e-05
aF9.8875e-05
aF9.875e-05
aF9.8625e-05
aF9.850000000000001e-05
aF9.8375e-05
aF9.825e-05
aF9.8125e-05
aF9.800000000000001e-05
aF9.787500000000001e-05
aF9.775e-05
aF9.7625e-05
aF9.75e-05
aF9.737500000000001e-05
aF9.725e-05
aF9.7125e-05
aF9.7e-05
aF9.687500000000001e-05
aF9.675000000000001e-05
aF9.6625e-05
aF9.65e-05
aF9.6375e-05
aF9.625000000000001e-05
aF9.6125e-05
aF9.6e-05
aF9.5875e-05
aF9.575000000000001e-05
aF9.562500000000001e-05
aF9.55e-05
aF9.5375e-05
aF9.525000000000001e-05
aF9.512500000000001e-05
aF9.5e-05
asS'exploration_log'
p419
(lp420
F0.946
aF0.9369999999999999
aF0.9279999999999999
aF0.919
aF0.91
aF0.901
aF0.892
aF0.883
aF0.874
aF0.865
aF0.856
aF0.847
aF0.838
aF0.829
aF0.82
aF0.8109999999999999
aF0.802
aF0.7929999999999999
aF0.784
aF0.775
aF0.766
aF0.757
aF0.748
aF0.739
aF0.73
aF0.721
aF0.712
aF0.703
aF0.694
aF0.685
aF0.6759999999999999
aF0.667
aF0.6579999999999999
aF0.649
aF0.6399999999999999
aF0.631
aF0.622
aF0.613
aF0.604
aF0.595
aF0.586
aF0.577
aF0.5680000000000001
aF0.5589999999999999
aF0.55
aF0.5409999999999999
aF0.532
aF0.5229999999999999
aF0.514
aF0.5049999999999999
aF0.4959999999999999
aF0.487
aF0.478
aF0.469
aF0.45999999999999996
aF0.45099999999999996
aF0.44199999999999995
aF0.43299999999999994
aF0.42399999999999993
aF0.4149999999999999
aF0.4059999999999999
aF0.3969999999999999
aF0.3879999999999999
aF0.379
aF0.37
aF0.361
aF0.352
aF0.34299999999999997
aF0.33399999999999996
aF0.32499999999999996
aF0.31599999999999995
aF0.30699999999999994
aF0.29799999999999993
aF0.2889999999999999
aF0.2799999999999999
aF0.2709999999999999
aF0.262
aF0.253
aF0.244
aF0.235
aF0.22599999999999998
aF0.21699999999999997
aF0.20799999999999996
aF0.19899999999999995
aF0.18999999999999995
aF0.18099999999999994
aF0.17199999999999993
aF0.16299999999999992
aF0.15400000000000003
aF0.14500000000000002
aF0.136
aF0.127
aF0.118
aF0.10899999999999999
aF0.1
aF0.099775
aF0.09955
aF0.09932500000000001
aF0.09910000000000001
aF0.098875
aF0.09865
aF0.098425
aF0.09820000000000001
aF0.097975
aF0.09775
aF0.097525
aF0.09730000000000001
aF0.09707500000000001
aF0.09685
aF0.096625
aF0.0964
aF0.09617500000000001
aF0.09595000000000001
aF0.095725
aF0.0955
aF0.095275
aF0.09505000000000001
aF0.094825
aF0.0946
aF0.094375
aF0.09415000000000001
aF0.09392500000000001
aF0.0937
aF0.093475
aF0.09325
aF0.09302500000000001
aF0.09280000000000001
aF0.092575
aF0.09235
aF0.09212500000000001
aF0.09190000000000001
aF0.091675
aF0.09145
aF0.091225
aF0.091
asS'best_mean_log'
p421
(lp422
F-inf
aF-inf
aF-inf
aF-inf
aF-inf
aF-inf
aF-inf
aF-inf
aF-inf
aF-inf
aF-inf
aF-inf
aF-inf
aF-inf
aF-inf
aF-inf
aF-inf
aF-inf
aF-inf
aF-inf
aF-inf
aF-inf
aF-inf
aF-inf
aF-inf
aF-inf
aF-inf
aF-inf
aF-inf
aF-inf
aF-inf
aF-inf
aF-inf
aF-inf
aF-inf
aF-inf
aF-inf
aF-inf
aF-inf
aF-inf
aF-inf
aF-inf
aF-inf
aF-inf
aF-inf
aF-inf
aF-inf
aF-inf
aF-inf
aF-inf
aF-inf
aF-inf
aF-inf
aF-inf
aF-inf
aF-inf
aF-inf
aF-inf
aF-inf
aF-inf
aF-inf
aF-inf
aF-inf
aF-inf
aF-inf
aF-inf
aF-inf
aF-inf
aF-inf
aF-inf
aF-inf
aF-inf
aF-inf
aF-inf
aF-inf
aF-inf
aF-inf
aF-inf
aF-inf
aF-inf
aF-inf
aF-inf
aF-inf
aF-inf
aF-inf
aF-inf
aF-inf
aF-inf
aF-inf
aF-inf
aF-inf
aF-inf
aF-inf
aF-inf
aF-inf
aF-inf
aF-inf
aF-inf
aF-inf
aF-inf
aF-inf
aF-inf
aF-inf
aF-inf
aF-inf
aF-inf
aF-inf
aF-inf
aF-inf
aF-inf
aF-inf
aF-inf
aF-inf
aF-inf
aF-inf
aF-inf
aF-inf
aF-inf
aF-inf
aF-inf
aF-inf
aF-inf
aF-inf
aF-inf
aF-inf
aF-inf
aF-inf
aF-inf
aF-inf
aF-inf
aF-inf
aF-inf
aF-inf
aF-inf
aF-inf
asS'episodes_log'
p423
(lp424
I53
aI53
aI53
aI53
aI53
aI53
aI53
aI53
aI53
aI53
aI53
aI53
aI53
aI53
aI53
aI53
aI53
aI53
aI53
aI53
aI53
aI53
aI53
aI53
aI53
aI53
aI53
aI53
aI53
aI53
aI53
aI53
aI53
aI53
aI53
aI53
aI53
aI53
aI53
aI53
aI53
aI53
aI53
aI53
aI53
aI53
aI53
aI53
aI53
aI53
aI53
aI53
aI53
aI53
aI53
aI53
aI53
aI53
aI53
aI53
aI53
aI53
aI53
aI53
aI53
aI53
aI53
aI53
aI53
aI53
aI53
aI53
aI53
aI53
aI53
aI53
aI53
aI53
aI53
aI53
aI53
aI53
aI53
aI53
aI53
aI53
aI53
aI53
aI53
aI53
aI53
aI53
aI53
aI53
aI53
aI53
aI53
aI53
aI53
aI53
aI53
aI53
aI53
aI53
aI53
aI53
aI53
aI53
aI53
aI53
aI53
aI53
aI53
aI53
aI53
aI53
aI53
aI53
aI53
aI53
aI53
aI53
aI53
aI53
aI53
aI53
aI53
aI53
aI53
aI53
aI53
aI53
aI53
aI53
aI53
as.