(dp0
S't_log'
p1
(lp2
I60000
aI70000
aI80000
aI90000
aI100000
aI110000
aI120000
aI130000
aI140000
aI150000
aI160000
aI170000
aI180000
aI190000
aI200000
aI210000
aI220000
aI230000
aI240000
aI250000
aI260000
aI270000
aI280000
aI290000
aI300000
aI310000
aI320000
aI330000
aI340000
aI350000
aI360000
aI370000
aI380000
aI390000
aI400000
aI410000
aI420000
aI430000
aI440000
aI450000
aI460000
aI470000
aI480000
aI490000
aI500000
aI510000
aI520000
aI530000
aI540000
aI550000
aI560000
aI570000
aI580000
aI590000
aI600000
aI610000
aI620000
aI630000
aI640000
aI650000
aI660000
aI670000
aI680000
aI690000
aI700000
aI710000
aI720000
aI730000
aI740000
aI750000
aI760000
aI770000
aI780000
aI790000
aI800000
asS'mean_reward_log'
p3
(lp4
cnumpy.core.multiarray
scalar
p5
(cnumpy
dtype
p6
(S'f8'
p7
I0
I1
tp8
Rp9
(I3
S'<'
p10
NNNI-1
I-1
I0
tp11
bS'/\xba\xe8\xa2\x8b\xae-\xc0'
p12
tp13
Rp14
ag5
(g9
S'{\x14\xaeG\xe1z$\xc0'
p15
tp16
Rp17
ag5
(g9
S'R\xb8\x1e\x85\xebQ\x17\xc0'
p18
tp19
Rp20
ag5
(g9
S'\\\x8f\xc2\xf5(\\\x13\xc0'
p21
tp22
Rp23
ag5
(g9
S'\xecQ\xb8\x1e\x85\xeb\x11\xc0'
p24
tp25
Rp26
ag5
(g9
S'\xd7\xa3p=\n\xd7\x10\xc0'
p27
tp28
Rp29
ag5
(g9
S'\x8f\xc2\xf5(\\\x8f\x0e\xc0'
p30
tp31
Rp32
ag5
(g9
S'q=\n\xd7\xa3p\r\xc0'
p33
tp34
Rp35
ag5
(g9
S'\x00\x00\x00\x00\x00\x00\x0e\xc0'
p36
tp37
Rp38
ag5
(g9
S'\xd7\xa3p=\n\xd7\x0b\xc0'
p39
tp40
Rp41
ag5
(g9
S'333333\t\xc0'
p42
tp43
Rp44
ag5
(g9
S'333333\x05\xc0'
p45
tp46
Rp47
ag5
(g9
S'333333\x07\xc0'
p48
tp49
Rp50
ag5
(g9
S'\xf6(\\\x8f\xc2\xf5\x04\xc0'
p51
tp52
Rp53
ag5
(g9
S'\xe1z\x14\xaeG\xe1\x02\xc0'
p54
tp55
Rp56
ag5
(g9
S'{\x14\xaeG\xe1z\x02\xc0'
p57
tp58
Rp59
ag5
(g9
S'\x85\xebQ\xb8\x1e\x85\x01\xc0'
p60
tp61
Rp62
ag5
(g9
S'\x8f\xc2\xf5(\\\x8f\x02\xc0'
p63
tp64
Rp65
ag5
(g9
S'\xb8\x1e\x85\xebQ\xb8\x00\xc0'
p66
tp67
Rp68
ag5
(g9
S'\n\xd7\xa3p=\n\x01\xc0'
p69
tp70
Rp71
ag5
(g9
S'\x14\xaeG\xe1z\x14\x00\xc0'
p72
tp73
Rp74
ag5
(g9
S'R\xb8\x1e\x85\xebQ\xfc\xbf'
p75
tp76
Rp77
ag5
(g9
S'\xf6(\\\x8f\xc2\xf5\xfc\xbf'
p78
tp79
Rp80
ag5
(g9
S')\\\x8f\xc2\xf5(\xfc\xbf'
p81
tp82
Rp83
ag5
(g9
S'\xa4p=\n\xd7\xa3\xfc\xbf'
p84
tp85
Rp86
ag5
(g9
S'H\xe1z\x14\xaeG\xf9\xbf'
p87
tp88
Rp89
ag5
(g9
S'\n\xd7\xa3p=\n\xfb\xbf'
p90
tp91
Rp92
ag5
(g9
S'=\n\xd7\xa3p=\xfa\xbf'
p93
tp94
Rp95
ag5
(g9
S')\\\x8f\xc2\xf5(\xf8\xbf'
p96
tp97
Rp98
ag5
(g9
S'\x1f\x85\xebQ\xb8\x1e\xf9\xbf'
p99
tp100
Rp101
ag5
(g9
S'\xe1z\x14\xaeG\xe1\xf6\xbf'
p102
tp103
Rp104
ag5
(g9
S'\xcd\xcc\xcc\xcc\xcc\xcc\xf8\xbf'
p105
tp106
Rp107
ag5
(g9
S'\xc3\xf5(\\\x8f\xc2\xf5\xbf'
p108
tp109
Rp110
ag5
(g9
S'\xf6(\\\x8f\xc2\xf5\xf4\xbf'
p111
tp112
Rp113
ag5
(g9
S'\xf6(\\\x8f\xc2\xf5\xf4\xbf'
p114
tp115
Rp116
ag5
(g9
S'\xaeG\xe1z\x14\xae\xf7\xbf'
p117
tp118
Rp119
ag5
(g9
S'\x1f\x85\xebQ\xb8\x1e\xf5\xbf'
p120
tp121
Rp122
ag5
(g9
S'\xcd\xcc\xcc\xcc\xcc\xcc\xf0\xbf'
p123
tp124
Rp125
ag5
(g9
S'=\n\xd7\xa3p=\xf2\xbf'
p126
tp127
Rp128
ag5
(g9
S'\x14\xaeG\xe1z\x14\xf2\xbf'
p129
tp130
Rp131
ag5
(g9
S'q=\n\xd7\xa3p\xf1\xbf'
p132
tp133
Rp134
ag5
(g9
S'\xa4p=\n\xd7\xa3\xf0\xbf'
p135
tp136
Rp137
ag5
(g9
S'R\xb8\x1e\x85\xebQ\xf0\xbf'
p138
tp139
Rp140
ag5
(g9
S'\xcd\xcc\xcc\xcc\xcc\xcc\xf0\xbf'
p141
tp142
Rp143
ag5
(g9
S'\xb8\x1e\x85\xebQ\xb8\xf2\xbf'
p144
tp145
Rp146
ag5
(g9
S'\xaeG\xe1z\x14\xae\xef\xbf'
p147
tp148
Rp149
ag5
(g9
S'333333\xf3\xbf'
p150
tp151
Rp152
ag5
(g9
S'\x00\x00\x00\x00\x00\x00\xf0\xbf'
p153
tp154
Rp155
ag5
(g9
S'\xcd\xcc\xcc\xcc\xcc\xcc\xec\xbf'
p156
tp157
Rp158
ag5
(g9
S'\x85\xebQ\xb8\x1e\x85\xeb\xbf'
p159
tp160
Rp161
ag5
(g9
S'333333\xeb\xbf'
p162
tp163
Rp164
ag5
(g9
S'R\xb8\x1e\x85\xebQ\xf0\xbf'
p165
tp166
Rp167
ag5
(g9
S'ffffff\xee\xbf'
p168
tp169
Rp170
ag5
(g9
S'\xd7\xa3p=\n\xd7\xeb\xbf'
p171
tp172
Rp173
ag5
(g9
S'\xd7\xa3p=\n\xd7\xeb\xbf'
p174
tp175
Rp176
ag5
(g9
S'\x85\xebQ\xb8\x1e\x85\xeb\xbf'
p177
tp178
Rp179
ag5
(g9
S'=\n\xd7\xa3p=\xea\xbf'
p180
tp181
Rp182
ag5
(g9
S'\x14\xaeG\xe1z\x14\xee\xbf'
p183
tp184
Rp185
ag5
(g9
S'\xecQ\xb8\x1e\x85\xeb\xf1\xbf'
p186
tp187
Rp188
ag5
(g9
S'\xc3\xf5(\\\x8f\xc2\xed\xbf'
p189
tp190
Rp191
ag5
(g9
S'R\xb8\x1e\x85\xebQ\xe8\xbf'
p192
tp193
Rp194
ag5
(g9
S'=\n\xd7\xa3p=\xea\xbf'
p195
tp196
Rp197
ag5
(g9
S'H\xe1z\x14\xaeG\xe9\xbf'
p198
tp199
Rp200
ag5
(g9
S'\xcd\xcc\xcc\xcc\xcc\xcc\xe4\xbf'
p201
tp202
Rp203
ag5
(g9
S'\xb8\x1e\x85\xebQ\xb8\xee\xbf'
p204
tp205
Rp206
ag5
(g9
S'\xa4p=\n\xd7\xa3\xe8\xbf'
p207
tp208
Rp209
ag5
(g9
S')\\\x8f\xc2\xf5(\xf0\xbf'
p210
tp211
Rp212
ag5
(g9
S'\xa4p=\n\xd7\xa3\xe8\xbf'
p213
tp214
Rp215
ag5
(g9
S'\n\xd7\xa3p=\n\xe7\xbf'
p216
tp217
Rp218
ag5
(g9
S'\xecQ\xb8\x1e\x85\xeb\xe9\xbf'
p219
tp220
Rp221
ag5
(g9
S'\xa4p=\n\xd7\xa3\xe8\xbf'
p222
tp223
Rp224
ag5
(g9
S'\x8f\xc2\xf5(\\\x8f\xea\xbf'
p225
tp226
Rp227
ag5
(g9
S'\xe1z\x14\xaeG\xe1\xea\xbf'
p228
tp229
Rp230
ag5
(g9
S'\x85\xebQ\xb8\x1e\x85\xe3\xbf'
p231
tp232
Rp233
ag5
(g9
S'333333\xe3\xbf'
p234
tp235
Rp236
asS'diff'
p237
(lp238
I0
aI394
aI868
aI1409
aI2057
aI2749
aI3502
aI4395
aI5351
aI6342
aI7379
aI8493
aI9774
aI11103
aI12505
aI14077
aI15637
aI17295
aI18983
aI20724
aI22467
aI24321
aI26193
aI28116
aI30139
aI32182
aI34328
aI36637
aI38912
aI41265
aI43708
aI46239
aI48857
aI51595
aI54373
aI57204
aI60134
aI63095
aI66202
aI69256
aI72317
aI75550
aI78956
aI82400
aI85779
aI89325
aI92919
aI96555
aI100242
aI104048
aI107838
aI111676
aI115572
aI119398
aI123420
aI127569
aI131739
aI135936
aI140117
aI144383
aI148930
aI153473
aI158159
aI162702
aI167384
aI172118
aI176967
aI181949
aI186801
aI191776
aI196811
aI201896
aI207025
aI212403
aI217772
aI223179
asS'exploration_log'
p239
(lp240
F0.946
aF0.9369999999999999
aF0.9279999999999999
aF0.919
aF0.91
aF0.901
aF0.892
aF0.883
aF0.874
aF0.865
aF0.856
aF0.847
aF0.838
aF0.829
aF0.82
aF0.8109999999999999
aF0.802
aF0.7929999999999999
aF0.784
aF0.775
aF0.766
aF0.757
aF0.748
aF0.739
aF0.73
aF0.721
aF0.712
aF0.703
aF0.694
aF0.685
aF0.6759999999999999
aF0.667
aF0.6579999999999999
aF0.649
aF0.6399999999999999
aF0.631
aF0.622
aF0.613
aF0.604
aF0.595
aF0.586
aF0.577
aF0.5680000000000001
aF0.5589999999999999
aF0.55
aF0.5409999999999999
aF0.532
aF0.5229999999999999
aF0.514
aF0.5049999999999999
aF0.4959999999999999
aF0.487
aF0.478
aF0.469
aF0.45999999999999996
aF0.45099999999999996
aF0.44199999999999995
aF0.43299999999999994
aF0.42399999999999993
aF0.4149999999999999
aF0.4059999999999999
aF0.3969999999999999
aF0.3879999999999999
aF0.379
aF0.37
aF0.361
aF0.352
aF0.34299999999999997
aF0.33399999999999996
aF0.32499999999999996
aF0.31599999999999995
aF0.30699999999999994
aF0.29799999999999993
aF0.2889999999999999
aF0.2799999999999999
asS'best_mean_log'
p241
(lp242
F-inf
ag5
(g9
S'{\x14\xaeG\xe1z$\xc0'
p243
tp244
Rp245
ag5
(g9
S'\x1f\x85\xebQ\xb8\x1e\x17\xc0'
p246
tp247
Rp248
ag5
(g9
S'\\\x8f\xc2\xf5(\\\x13\xc0'
p249
tp250
Rp251
ag5
(g9
S'\xe1z\x14\xaeG\xe1\x11\xc0'
p252
tp253
Rp254
ag5
(g9
S'\xc3\xf5(\\\x8f\xc2\x10\xc0'
p255
tp256
Rp257
ag5
(g9
S'\x8f\xc2\xf5(\\\x8f\x0e\xc0'
p258
tp259
Rp260
ag5
(g9
S'H\xe1z\x14\xaeG\r\xc0'
p261
tp262
Rp263
ag5
(g9
S'\xe1z\x14\xaeG\xe1\x0c\xc0'
p264
tp265
Rp266
ag5
(g9
S'\x9a\x99\x99\x99\x99\x99\x0b\xc0'
p267
tp268
Rp269
ag5
(g9
S'\x8f\xc2\xf5(\\\x8f\x08\xc0'
p270
tp271
Rp272
ag5
(g9
S'333333\x05\xc0'
p273
tp274
Rp275
ag5
(g9
S'\n\xd7\xa3p=\n\x05\xc0'
p276
tp277
Rp278
ag5
(g9
S'\xa4p=\n\xd7\xa3\x04\xc0'
p279
tp280
Rp281
ag5
(g9
S'\xe1z\x14\xaeG\xe1\x02\xc0'
p282
tp283
Rp284
ag5
(g9
S')\\\x8f\xc2\xf5(\x02\xc0'
p285
tp286
Rp287
ag5
(g9
S'\x14\xaeG\xe1z\x14\x00\xc0'
p288
tp289
Rp290
ag290
ag290
ag5
(g9
S'\x00\x00\x00\x00\x00\x00\x00\xc0'
p291
tp292
Rp293
ag5
(g9
S'\n\xd7\xa3p=\n\xff\xbf'
p294
tp295
Rp296
ag5
(g9
S'R\xb8\x1e\x85\xebQ\xfc\xbf'
p297
tp298
Rp299
ag5
(g9
S'\x85\xebQ\xb8\x1e\x85\xfb\xbf'
p300
tp301
Rp302
ag5
(g9
S'=\n\xd7\xa3p=\xfa\xbf'
p303
tp304
Rp305
ag305
ag5
(g9
S'\xf6(\\\x8f\xc2\xf5\xf8\xbf'
p306
tp307
Rp308
ag5
(g9
S'\xaeG\xe1z\x14\xae\xf7\xbf'
p309
tp310
Rp311
ag311
ag5
(g9
S'\x1f\x85\xebQ\xb8\x1e\xf5\xbf'
p312
tp313
Rp314
ag314
ag314
ag5
(g9
S'R\xb8\x1e\x85\xebQ\xf4\xbf'
p315
tp316
Rp317
ag317
ag5
(g9
S'\n\xd7\xa3p=\n\xf3\xbf'
p318
tp319
Rp320
ag5
(g9
S'\xe1z\x14\xaeG\xe1\xf2\xbf'
p321
tp322
Rp323
ag323
ag323
ag5
(g9
S')\\\x8f\xc2\xf5(\xf0\xbf'
p324
tp325
Rp326
ag5
(g9
S'\x00\x00\x00\x00\x00\x00\xf0\xbf'
p327
tp328
Rp329
ag5
(g9
S'\xb8\x1e\x85\xebQ\xb8\xee\xbf'
p330
tp331
Rp332
ag332
ag332
ag5
(g9
S'\xecQ\xb8\x1e\x85\xeb\xe9\xbf'
p333
tp334
Rp335
ag335
ag335
ag335
ag335
ag335
ag335
ag5
(g9
S'R\xb8\x1e\x85\xebQ\xe8\xbf'
p336
tp337
Rp338
ag338
ag338
ag338
ag338
ag338
ag5
(g9
S')\\\x8f\xc2\xf5(\xe4\xbf'
p339
tp340
Rp341
ag341
ag341
ag341
ag341
ag341
ag341
ag341
ag5
(g9
S'333333\xe3\xbf'
p342
tp343
Rp344
ag344
ag5
(g9
S'\xecQ\xb8\x1e\x85\xeb\xe1\xbf'
p345
tp346
Rp347
ag347
ag347
ag347
ag347
ag347
ag347
ag347
ag5
(g9
S'\x14\xaeG\xe1z\x14\xde\xbf'
p348
tp349
Rp350
ag350
asS'episodes_log'
p351
(lp352
I88
aI126
aI170
aI219
aI270
aI325
aI389
aI454
aI522
aI595
aI673
aI757
aI845
aI935
aI1034
aI1135
aI1242
aI1350
aI1467
aI1584
aI1711
aI1837
aI1970
aI2111
aI2249
aI2396
aI2550
aI2704
aI2861
aI3022
aI3190
aI3363
aI3544
aI3728
aI3912
aI4103
aI4296
aI4495
aI4697
aI4904
aI5113
aI5331
aI5556
aI5780
aI6014
aI6250
aI6480
aI6719
aI6963
aI7212
aI7462
aI7713
aI7962
aI8225
aI8489
aI8758
aI9038
aI9319
aI9603
aI9893
aI10186
aI10489
aI10793
aI11099
aI11404
aI11723
aI12050
aI12368
aI12697
aI13023
aI13357
aI13694
aI14037
aI14385
aI14732
asS'same'
p353
(lp354
I0
aI88
aI197
aI318
aI463
aI597
aI768
aI938
aI1096
aI1289
aI1505
aI1723
aI1960
aI2202
aI2450
aI2699
aI2983
aI3266
aI3554
aI3924
aI4341
aI4828
aI5318
aI5876
aI6477
aI7050
aI7621
aI8196
aI8798
aI9432
aI10040
aI10692
aI11372
aI12066
aI12791
aI13523
aI14257
aI15007
aI15749
aI16569
aI17486
aI18355
aI19177
aI20107
aI21073
aI22021
aI22963
aI23896
aI24915
aI25982
aI27103
aI28302
aI29540
aI30744
aI32052
aI33228
aI34543
aI35874
aI37279
aI38696
aI40017
aI41357
aI42694
aI44270
aI45745
aI47229
aI48749
aI50246
aI51851
aI53509
aI55192
aI56900
aI58625
aI60200
aI61905
aI63598
asS'learning_rate_log'
p355
(lp356
F0.0001
aF0.0001
aF0.0001
aF0.0001
aF0.0001
aF0.0001
aF0.0001
aF0.0001
aF0.0001
aF0.0001
aF0.0001
aF0.0001
aF0.0001
aF0.0001
aF0.0001
aF0.0001
aF0.0001
aF0.0001
aF0.0001
aF0.0001
aF0.0001
aF0.0001
aF0.0001
aF0.0001
aF0.0001
aF0.0001
aF0.0001
aF0.0001
aF0.0001
aF0.0001
aF0.0001
aF0.0001
aF0.0001
aF0.0001
aF0.0001
aF0.0001
aF0.0001
aF0.0001
aF0.0001
aF0.0001
aF0.0001
aF0.0001
aF0.0001
aF0.0001
aF0.0001
aF0.0001
aF0.0001
aF0.0001
aF0.0001
aF0.0001
aF0.0001
aF0.0001
aF0.0001
aF0.0001
aF0.0001
aF0.0001
aF0.0001
aF0.0001
aF0.0001
aF0.0001
aF0.0001
aF0.0001
aF0.0001
aF0.0001
aF0.0001
aF0.0001
aF0.0001
aF0.0001
aF0.0001
aF0.0001
aF0.0001
aF0.0001
aF0.0001
aF0.0001
aF0.0001
as.