(dp0
S't_log'
p1
(lp2
I60000
aI70000
aI80000
aI90000
aI100000
aI110000
aI120000
aI130000
aI140000
aI150000
aI160000
aI170000
aI180000
aI190000
aI200000
asS'mean_reward_log'
p3
(lp4
cnumpy.core.multiarray
scalar
p5
(cnumpy
dtype
p6
(S'f8'
p7
I0
I1
tp8
Rp9
(I3
S'<'
p10
NNNI-1
I-1
I0
tp11
bS'/\xba\xe8\xa2\x8b\xae-\xc0'
p12
tp13
Rp14
ag5
(g9
S'{\x14\xaeG\xe1z$\xc0'
p15
tp16
Rp17
ag5
(g9
S'R\xb8\x1e\x85\xebQ\x17\xc0'
p18
tp19
Rp20
ag5
(g9
S'\\\x8f\xc2\xf5(\\\x13\xc0'
p21
tp22
Rp23
ag5
(g9
S'\xecQ\xb8\x1e\x85\xeb\x11\xc0'
p24
tp25
Rp26
ag5
(g9
S'\xd7\xa3p=\n\xd7\x10\xc0'
p27
tp28
Rp29
ag5
(g9
S'\x8f\xc2\xf5(\\\x8f\x0e\xc0'
p30
tp31
Rp32
ag5
(g9
S'q=\n\xd7\xa3p\r\xc0'
p33
tp34
Rp35
ag5
(g9
S'\x00\x00\x00\x00\x00\x00\x0e\xc0'
p36
tp37
Rp38
ag5
(g9
S'\xd7\xa3p=\n\xd7\x0b\xc0'
p39
tp40
Rp41
ag5
(g9
S'333333\t\xc0'
p42
tp43
Rp44
ag5
(g9
S'333333\x05\xc0'
p45
tp46
Rp47
ag5
(g9
S'333333\x07\xc0'
p48
tp49
Rp50
ag5
(g9
S'\xf6(\\\x8f\xc2\xf5\x04\xc0'
p51
tp52
Rp53
ag5
(g9
S'\xe1z\x14\xaeG\xe1\x02\xc0'
p54
tp55
Rp56
asS'diff'
p57
(lp58
I0
aI394
aI868
aI1409
aI2057
aI2749
aI3502
aI4395
aI5351
aI6342
aI7379
aI8493
aI9774
aI11103
aI12505
aI14077
asS'exploration_log'
p59
(lp60
F0.946
aF0.9369999999999999
aF0.9279999999999999
aF0.919
aF0.91
aF0.901
aF0.892
aF0.883
aF0.874
aF0.865
aF0.856
aF0.847
aF0.838
aF0.829
aF0.82
asS'best_mean_log'
p61
(lp62
F-inf
ag5
(g9
S'{\x14\xaeG\xe1z$\xc0'
p63
tp64
Rp65
ag5
(g9
S'\x1f\x85\xebQ\xb8\x1e\x17\xc0'
p66
tp67
Rp68
ag5
(g9
S'\\\x8f\xc2\xf5(\\\x13\xc0'
p69
tp70
Rp71
ag5
(g9
S'\xe1z\x14\xaeG\xe1\x11\xc0'
p72
tp73
Rp74
ag5
(g9
S'\xc3\xf5(\\\x8f\xc2\x10\xc0'
p75
tp76
Rp77
ag5
(g9
S'\x8f\xc2\xf5(\\\x8f\x0e\xc0'
p78
tp79
Rp80
ag5
(g9
S'H\xe1z\x14\xaeG\r\xc0'
p81
tp82
Rp83
ag5
(g9
S'\xe1z\x14\xaeG\xe1\x0c\xc0'
p84
tp85
Rp86
ag5
(g9
S'\x9a\x99\x99\x99\x99\x99\x0b\xc0'
p87
tp88
Rp89
ag5
(g9
S'\x8f\xc2\xf5(\\\x8f\x08\xc0'
p90
tp91
Rp92
ag5
(g9
S'333333\x05\xc0'
p93
tp94
Rp95
ag5
(g9
S'\n\xd7\xa3p=\n\x05\xc0'
p96
tp97
Rp98
ag5
(g9
S'\xa4p=\n\xd7\xa3\x04\xc0'
p99
tp100
Rp101
ag5
(g9
S'\xe1z\x14\xaeG\xe1\x02\xc0'
p102
tp103
Rp104
asS'episodes_log'
p105
(lp106
I88
aI126
aI170
aI219
aI270
aI325
aI389
aI454
aI522
aI595
aI673
aI757
aI845
aI935
aI1034
asS'same'
p107
(lp108
I0
aI88
aI197
aI318
aI463
aI597
aI768
aI938
aI1096
aI1289
aI1505
aI1723
aI1960
aI2202
aI2450
aI2699
asS'learning_rate_log'
p109
(lp110
F0.0001
aF0.0001
aF0.0001
aF0.0001
aF0.0001
aF0.0001
aF0.0001
aF0.0001
aF0.0001
aF0.0001
aF0.0001
aF0.0001
aF0.0001
aF0.0001
aF0.0001
as.