(dp0
S't_log'
p1
(lp2
I60000
aI70000
aI80000
aI90000
aI100000
aI110000
aI120000
aI130000
aI140000
aI150000
aI160000
aI170000
aI180000
aI190000
aI200000
aI210000
aI220000
aI230000
aI240000
aI250000
aI260000
aI270000
aI280000
aI290000
aI300000
aI310000
aI320000
aI330000
aI340000
aI350000
aI360000
aI370000
aI380000
aI390000
aI400000
aI410000
aI420000
aI430000
aI440000
aI450000
aI460000
aI470000
aI480000
aI490000
aI500000
aI510000
aI520000
aI530000
aI540000
aI550000
aI560000
aI570000
aI580000
aI590000
aI600000
aI610000
aI620000
aI630000
aI640000
aI650000
aI660000
aI670000
aI680000
aI690000
aI700000
aI710000
aI720000
aI730000
aI740000
aI750000
aI760000
aI770000
aI780000
aI790000
aI800000
aI810000
aI820000
aI830000
aI840000
aI850000
aI860000
aI870000
aI880000
aI890000
aI900000
aI910000
aI920000
aI930000
aI940000
aI950000
aI960000
aI970000
aI980000
aI990000
aI1000000
aI1010000
aI1020000
aI1030000
aI1040000
aI1050000
aI1060000
aI1070000
aI1080000
aI1090000
aI1100000
aI1110000
aI1120000
aI1130000
aI1140000
aI1150000
aI1160000
aI1170000
aI1180000
aI1190000
aI1200000
aI1210000
aI1220000
aI1230000
aI1240000
aI1250000
aI1260000
aI1270000
aI1280000
aI1290000
aI1300000
aI1310000
aI1320000
aI1330000
aI1340000
aI1350000
aI1360000
aI1370000
aI1380000
aI1390000
aI1400000
aI1410000
aI1420000
aI1430000
aI1440000
aI1450000
aI1460000
aI1470000
aI1480000
aI1490000
aI1500000
aI1510000
aI1520000
aI1530000
aI1540000
aI1550000
aI1560000
aI1570000
aI1580000
aI1590000
aI1600000
aI1610000
aI1620000
aI1630000
aI1640000
aI1650000
aI1660000
aI1670000
aI1680000
aI1690000
aI1700000
aI1710000
aI1720000
aI1730000
aI1740000
aI1750000
aI1760000
aI1770000
aI1780000
aI1790000
aI1800000
aI1810000
aI1820000
aI1830000
aI1840000
aI1850000
aI1860000
aI1870000
aI1880000
aI1890000
aI1900000
aI1910000
aI1920000
aI1930000
aI1940000
aI1950000
aI1960000
aI1970000
aI1980000
aI1990000
aI2000000
aI2010000
aI2020000
aI2030000
aI2040000
aI2050000
aI2060000
aI2070000
aI2080000
aI2090000
aI2100000
aI2110000
aI2120000
aI2130000
aI2140000
aI2150000
aI2160000
aI2170000
aI2180000
aI2190000
aI2200000
aI2210000
aI2220000
aI2230000
aI2240000
aI2250000
aI2260000
aI2270000
aI2280000
aI2290000
aI2300000
aI2310000
aI2320000
aI2330000
aI2340000
aI2350000
aI2360000
aI2370000
aI2380000
aI2390000
aI2400000
aI2410000
aI2420000
aI2430000
aI2440000
aI2450000
aI2460000
aI2470000
aI2480000
aI2490000
aI2500000
aI2510000
aI2520000
aI2530000
aI2540000
aI2550000
aI2560000
aI2570000
aI2580000
aI2590000
aI2600000
aI2610000
aI2620000
aI2630000
aI2640000
aI2650000
aI2660000
aI2670000
aI2680000
aI2690000
aI2700000
aI2710000
aI2720000
aI2730000
aI2740000
aI2750000
aI2760000
aI2770000
aI2780000
aI2790000
aI2800000
asS'mean_reward_log'
p3
(lp4
cnumpy.core.multiarray
scalar
p5
(cnumpy
dtype
p6
(S'f8'
p7
I0
I1
tp8
Rp9
(I3
S'<'
p10
NNNI-1
I-1
I0
tp11
bS'\xb0\xc6Dz\xa0r3\xc0'
p12
tp13
Rp14
ag5
(g9
S'\xc1\xd3\xad\xf9a\x912\xc0'
p15
tp16
Rp17
ag5
(g9
S'\xab\xaa\xaa\xaa\xaa\xca1\xc0'
p18
tp19
Rp20
ag5
(g9
S'{\x14\xaeG\xe1\xfa0\xc0'
p21
tp22
Rp23
ag5
(g9
S'\xcd\xcc\xcc\xcc\xcc\xcc/\xc0'
p24
tp25
Rp26
ag5
(g9
S'q=\n\xd7\xa3p-\xc0'
p27
tp28
Rp29
ag5
(g9
S'H\xe1z\x14\xaeG+\xc0'
p30
tp31
Rp32
ag5
(g9
S'\x9a\x99\x99\x99\x99\x19*\xc0'
p33
tp34
Rp35
ag5
(g9
S'\xc3\xf5(\\\x8fB)\xc0'
p36
tp37
Rp38
ag5
(g9
S'\xd7\xa3p=\nW(\xc0'
p39
tp40
Rp41
ag5
(g9
S"\xc3\xf5(\\\x8f\xc2'\xc0"
p42
tp43
Rp44
ag5
(g9
S"\n\xd7\xa3p=\n'\xc0"
p45
tp46
Rp47
ag5
(g9
S'\x8f\xc2\xf5(\\\x8f&\xc0'
p48
tp49
Rp50
ag5
(g9
S'\x9a\x99\x99\x99\x99\x99%\xc0'
p51
tp52
Rp53
ag5
(g9
S'\xecQ\xb8\x1e\x85\xeb$\xc0'
p54
tp55
Rp56
ag5
(g9
S'\xa4p=\n\xd7#$\xc0'
p57
tp58
Rp59
ag5
(g9
S'\xc3\xf5(\\\x8fB#\xc0'
p60
tp61
Rp62
ag5
(g9
S'=\n\xd7\xa3p=#\xc0'
p63
tp64
Rp65
ag5
(g9
S'q=\n\xd7\xa3p"\xc0'
p66
tp67
Rp68
ag5
(g9
S'\x00\x00\x00\x00\x00\x00"\xc0'
p69
tp70
Rp71
ag5
(g9
S'\x1f\x85\xebQ\xb8\x9e!\xc0'
p72
tp73
Rp74
ag5
(g9
S'\xd7\xa3p=\nW!\xc0'
p75
tp76
Rp77
ag5
(g9
S'\xaeG\xe1z\x14.!\xc0'
p78
tp79
Rp80
ag5
(g9
S'\xecQ\xb8\x1e\x85k \xc0'
p81
tp82
Rp83
ag5
(g9
S'\xb8\x1e\x85\xebQ\xb8\x1f\xc0'
p84
tp85
Rp86
ag5
(g9
S'\xa4p=\n\xd7\xa3\x1e\xc0'
p87
tp88
Rp89
ag5
(g9
S'\xd7\xa3p=\n\xd7\x1e\xc0'
p90
tp91
Rp92
ag5
(g9
S'\x9a\x99\x99\x99\x99\x99\x1d\xc0'
p93
tp94
Rp95
ag5
(g9
S'=\n\xd7\xa3p=\x1d\xc0'
p96
tp97
Rp98
ag5
(g9
S'\x85\xebQ\xb8\x1e\x85\x1c\xc0'
p99
tp100
Rp101
ag5
(g9
S'ffffff\x1b\xc0'
p102
tp103
Rp104
ag5
(g9
S'\\\x8f\xc2\xf5(\\\x1a\xc0'
p105
tp106
Rp107
ag5
(g9
S'\xecQ\xb8\x1e\x85\xeb\x19\xc0'
p108
tp109
Rp110
ag5
(g9
S'R\xb8\x1e\x85\xebQ\x19\xc0'
p111
tp112
Rp113
ag5
(g9
S'\xcd\xcc\xcc\xcc\xcc\xcc\x19\xc0'
p114
tp115
Rp116
ag5
(g9
S'=\n\xd7\xa3p=\x1a\xc0'
p117
tp118
Rp119
ag5
(g9
S'\x85\xebQ\xb8\x1e\x85\x18\xc0'
p120
tp121
Rp122
ag5
(g9
S'{\x14\xaeG\xe1z\x18\xc0'
p123
tp124
Rp125
ag5
(g9
S'q=\n\xd7\xa3p\x18\xc0'
p126
tp127
Rp128
ag5
(g9
S'=\n\xd7\xa3p=\x19\xc0'
p129
tp130
Rp131
ag5
(g9
S'\xc3\xf5(\\\x8f\xc2\x17\xc0'
p132
tp133
Rp134
ag5
(g9
S'\x00\x00\x00\x00\x00\x00\x17\xc0'
p135
tp136
Rp137
ag5
(g9
S'\\\x8f\xc2\xf5(\\\x17\xc0'
p138
tp139
Rp140
ag5
(g9
S')\\\x8f\xc2\xf5(\x17\xc0'
p141
tp142
Rp143
ag5
(g9
S'\xcd\xcc\xcc\xcc\xcc\xcc\x15\xc0'
p144
tp145
Rp146
ag5
(g9
S'q=\n\xd7\xa3p\x15\xc0'
p147
tp148
Rp149
ag5
(g9
S'\xcd\xcc\xcc\xcc\xcc\xcc\x15\xc0'
p150
tp151
Rp152
ag5
(g9
S'\xaeG\xe1z\x14\xae\x15\xc0'
p153
tp154
Rp155
ag5
(g9
S'q=\n\xd7\xa3p\x15\xc0'
p156
tp157
Rp158
ag5
(g9
S'H\xe1z\x14\xaeG\x15\xc0'
p159
tp160
Rp161
ag5
(g9
S'333333\x14\xc0'
p162
tp163
Rp164
ag5
(g9
S')\\\x8f\xc2\xf5(\x13\xc0'
p165
tp166
Rp167
ag5
(g9
S'H\xe1z\x14\xaeG\x13\xc0'
p168
tp169
Rp170
ag5
(g9
S'\xb8\x1e\x85\xebQ\xb8\x13\xc0'
p171
tp172
Rp173
ag5
(g9
S'\xf6(\\\x8f\xc2\xf5\x14\xc0'
p174
tp175
Rp176
ag5
(g9
S'\x85\xebQ\xb8\x1e\x85\x14\xc0'
p177
tp178
Rp179
ag5
(g9
S'=\n\xd7\xa3p=\x12\xc0'
p180
tp181
Rp182
ag5
(g9
S'\x1f\x85\xebQ\xb8\x1e\x13\xc0'
p183
tp184
Rp185
ag5
(g9
S')\\\x8f\xc2\xf5(\x13\xc0'
p186
tp187
Rp188
ag5
(g9
S'\n\xd7\xa3p=\n\x12\xc0'
p189
tp190
Rp191
ag5
(g9
S'\x85\xebQ\xb8\x1e\x85\x11\xc0'
p192
tp193
Rp194
ag5
(g9
S'R\xb8\x1e\x85\xebQ\x11\xc0'
p195
tp196
Rp197
ag5
(g9
S'\x00\x00\x00\x00\x00\x00\x12\xc0'
p198
tp199
Rp200
ag5
(g9
S'\xc3\xf5(\\\x8f\xc2\x11\xc0'
p201
tp202
Rp203
ag5
(g9
S'H\xe1z\x14\xaeG\x10\xc0'
p204
tp205
Rp206
ag5
(g9
S'333333\x0f\xc0'
p207
tp208
Rp209
ag5
(g9
S'{\x14\xaeG\xe1z\x0e\xc0'
p210
tp211
Rp212
ag5
(g9
S'\xb8\x1e\x85\xebQ\xb8\x10\xc0'
p213
tp214
Rp215
ag5
(g9
S'\x1f\x85\xebQ\xb8\x1e\x11\xc0'
p216
tp217
Rp218
ag5
(g9
S'\x1f\x85\xebQ\xb8\x1e\x10\xc0'
p219
tp220
Rp221
ag5
(g9
S'\xaeG\xe1z\x14\xae\x11\xc0'
p222
tp223
Rp224
ag5
(g9
S'=\n\xd7\xa3p=\x10\xc0'
p225
tp226
Rp227
ag5
(g9
S'\xcd\xcc\xcc\xcc\xcc\xcc\x0e\xc0'
p228
tp229
Rp230
ag5
(g9
S'\x85\xebQ\xb8\x1e\x85\x0f\xc0'
p231
tp232
Rp233
ag5
(g9
S'\xd7\xa3p=\n\xd7\x0f\xc0'
p234
tp235
Rp236
ag5
(g9
S'\xd7\xa3p=\n\xd7\r\xc0'
p237
tp238
Rp239
ag5
(g9
S'\xaeG\xe1z\x14\xae\x0f\xc0'
p240
tp241
Rp242
ag5
(g9
S'333333\x0f\xc0'
p243
tp244
Rp245
ag5
(g9
S'\x1f\x85\xebQ\xb8\x1e\r\xc0'
p246
tp247
Rp248
ag5
(g9
S'\xd7\xa3p=\n\xd7\r\xc0'
p249
tp250
Rp251
ag5
(g9
S'\x85\xebQ\xb8\x1e\x85\x0f\xc0'
p252
tp253
Rp254
ag5
(g9
S'\xaeG\xe1z\x14\xae\r\xc0'
p255
tp256
Rp257
ag5
(g9
S'\x14\xaeG\xe1z\x14\x10\xc0'
p258
tp259
Rp260
ag5
(g9
S'333333\r\xc0'
p261
tp262
Rp263
ag5
(g9
S'\xecQ\xb8\x1e\x85\xeb\x0b\xc0'
p264
tp265
Rp266
ag5
(g9
S'\\\x8f\xc2\xf5(\\\r\xc0'
p267
tp268
Rp269
ag5
(g9
S'\x00\x00\x00\x00\x00\x00\x0c\xc0'
p270
tp271
Rp272
ag5
(g9
S'333333\x0b\xc0'
p273
tp274
Rp275
ag5
(g9
S'\x85\xebQ\xb8\x1e\x85\t\xc0'
p276
tp277
Rp278
ag5
(g9
S'q=\n\xd7\xa3p\x0b\xc0'
p279
tp280
Rp281
ag5
(g9
S'\x00\x00\x00\x00\x00\x00\x0c\xc0'
p282
tp283
Rp284
ag5
(g9
S'\xc3\xf5(\\\x8f\xc2\t\xc0'
p285
tp286
Rp287
ag5
(g9
S'\xaeG\xe1z\x14\xae\r\xc0'
p288
tp289
Rp290
ag5
(g9
S'\xaeG\xe1z\x14\xae\t\xc0'
p291
tp292
Rp293
ag5
(g9
S'\xecQ\xb8\x1e\x85\xeb\t\xc0'
p294
tp295
Rp296
ag5
(g9
S'\x1f\x85\xebQ\xb8\x1e\t\xc0'
p297
tp298
Rp299
ag5
(g9
S'\xd7\xa3p=\n\xd7\t\xc0'
p300
tp301
Rp302
ag5
(g9
S'=\n\xd7\xa3p=\n\xc0'
p303
tp304
Rp305
ag5
(g9
S'\x1f\x85\xebQ\xb8\x1e\x0b\xc0'
p306
tp307
Rp308
ag5
(g9
S'\x8f\xc2\xf5(\\\x8f\x0c\xc0'
p309
tp310
Rp311
ag5
(g9
S'\x9a\x99\x99\x99\x99\x99\x07\xc0'
p312
tp313
Rp314
ag5
(g9
S'\xaeG\xe1z\x14\xae\t\xc0'
p315
tp316
Rp317
ag5
(g9
S'\xcd\xcc\xcc\xcc\xcc\xcc\x0c\xc0'
p318
tp319
Rp320
ag5
(g9
S'\xc3\xf5(\\\x8f\xc2\x07\xc0'
p321
tp322
Rp323
ag5
(g9
S'q=\n\xd7\xa3p\t\xc0'
p324
tp325
Rp326
ag5
(g9
S')\\\x8f\xc2\xf5(\x08\xc0'
p327
tp328
Rp329
ag5
(g9
S'=\n\xd7\xa3p=\n\xc0'
p330
tp331
Rp332
ag5
(g9
S'333333\t\xc0'
p333
tp334
Rp335
ag5
(g9
S'\xf6(\\\x8f\xc2\xf5\n\xc0'
p336
tp337
Rp338
ag5
(g9
S'\xd7\xa3p=\n\xd7\x07\xc0'
p339
tp340
Rp341
ag5
(g9
S'\x1f\x85\xebQ\xb8\x1e\t\xc0'
p342
tp343
Rp344
ag5
(g9
S'\n\xd7\xa3p=\n\t\xc0'
p345
tp346
Rp347
ag5
(g9
S'{\x14\xaeG\xe1z\n\xc0'
p348
tp349
Rp350
ag5
(g9
S'\x8f\xc2\xf5(\\\x8f\x08\xc0'
p351
tp352
Rp353
ag5
(g9
S'333333\t\xc0'
p354
tp355
Rp356
ag5
(g9
S'\n\xd7\xa3p=\n\t\xc0'
p357
tp358
Rp359
ag5
(g9
S'=\n\xd7\xa3p=\x08\xc0'
p360
tp361
Rp362
ag5
(g9
S'\xd7\xa3p=\n\xd7\t\xc0'
p363
tp364
Rp365
ag5
(g9
S'\x14\xaeG\xe1z\x14\n\xc0'
p366
tp367
Rp368
ag5
(g9
S'=\n\xd7\xa3p=\x08\xc0'
p369
tp370
Rp371
ag5
(g9
S'333333\t\xc0'
p372
tp373
Rp374
ag5
(g9
S'\xecQ\xb8\x1e\x85\xeb\x0b\xc0'
p375
tp376
Rp377
ag5
(g9
S'\x9a\x99\x99\x99\x99\x99\r\xc0'
p378
tp379
Rp380
ag5
(g9
S'=\n\xd7\xa3p=\n\xc0'
p381
tp382
Rp383
ag5
(g9
S'ffffff\x08\xc0'
p384
tp385
Rp386
ag5
(g9
S'R\xb8\x1e\x85\xebQ\x08\xc0'
p387
tp388
Rp389
ag5
(g9
S'\x1f\x85\xebQ\xb8\x1e\r\xc0'
p390
tp391
Rp392
ag5
(g9
S'\x14\xaeG\xe1z\x14\x0e\xc0'
p393
tp394
Rp395
ag5
(g9
S'\x14\xaeG\xe1z\x14\n\xc0'
p396
tp397
Rp398
ag5
(g9
S'\xb8\x1e\x85\xebQ\xb8\n\xc0'
p399
tp400
Rp401
ag5
(g9
S'R\xb8\x1e\x85\xebQ\x0c\xc0'
p402
tp403
Rp404
ag5
(g9
S'\x00\x00\x00\x00\x00\x00\x0e\xc0'
p405
tp406
Rp407
ag5
(g9
S'\x14\xaeG\xe1z\x14\x0c\xc0'
p408
tp409
Rp410
ag5
(g9
S'\x00\x00\x00\x00\x00\x00\x0c\xc0'
p411
tp412
Rp413
ag5
(g9
S'\xf6(\\\x8f\xc2\xf5\n\xc0'
p414
tp415
Rp416
ag5
(g9
S'\n\xd7\xa3p=\n\t\xc0'
p417
tp418
Rp419
ag5
(g9
S'\xe1z\x14\xaeG\xe1\n\xc0'
p420
tp421
Rp422
ag5
(g9
S'\xecQ\xb8\x1e\x85\xeb\x0b\xc0'
p423
tp424
Rp425
ag5
(g9
S'\x85\xebQ\xb8\x1e\x85\r\xc0'
p426
tp427
Rp428
ag5
(g9
S'H\xe1z\x14\xaeG\x0b\xc0'
p429
tp430
Rp431
ag5
(g9
S'H\xe1z\x14\xaeG\r\xc0'
p432
tp433
Rp434
ag5
(g9
S'{\x14\xaeG\xe1z\x0c\xc0'
p435
tp436
Rp437
ag5
(g9
S'\xa4p=\n\xd7\xa3\n\xc0'
p438
tp439
Rp440
ag5
(g9
S'ffffff\x08\xc0'
p441
tp442
Rp443
ag5
(g9
S'H\xe1z\x14\xaeG\t\xc0'
p444
tp445
Rp446
ag5
(g9
S'\x85\xebQ\xb8\x1e\x85\x0b\xc0'
p447
tp448
Rp449
ag5
(g9
S'ffffff\n\xc0'
p450
tp451
Rp452
ag5
(g9
S'\xb8\x1e\x85\xebQ\xb8\x08\xc0'
p453
tp454
Rp455
ag5
(g9
S'\x8f\xc2\xf5(\\\x8f\n\xc0'
p456
tp457
Rp458
ag5
(g9
S'\x1f\x85\xebQ\xb8\x1e\x0b\xc0'
p459
tp460
Rp461
ag5
(g9
S'\x8f\xc2\xf5(\\\x8f\x08\xc0'
p462
tp463
Rp464
ag5
(g9
S'{\x14\xaeG\xe1z\n\xc0'
p465
tp466
Rp467
ag5
(g9
S'R\xb8\x1e\x85\xebQ\x0e\xc0'
p468
tp469
Rp470
ag5
(g9
S'\x9a\x99\x99\x99\x99\x99\x0f\xc0'
p471
tp472
Rp473
ag5
(g9
S'\xecQ\xb8\x1e\x85\xeb\x0b\xc0'
p474
tp475
Rp476
ag5
(g9
S'=\n\xd7\xa3p=\x0c\xc0'
p477
tp478
Rp479
ag5
(g9
S'R\xb8\x1e\x85\xebQ\n\xc0'
p480
tp481
Rp482
ag5
(g9
S'R\xb8\x1e\x85\xebQ\x08\xc0'
p483
tp484
Rp485
ag5
(g9
S'\x00\x00\x00\x00\x00\x00\x08\xc0'
p486
tp487
Rp488
ag5
(g9
S'\x14\xaeG\xe1z\x14\x0c\xc0'
p489
tp490
Rp491
ag5
(g9
S'\xcd\xcc\xcc\xcc\xcc\xcc\x06\xc0'
p492
tp493
Rp494
ag5
(g9
S'ffffff\x0c\xc0'
p495
tp496
Rp497
ag5
(g9
S'q=\n\xd7\xa3p\x0b\xc0'
p498
tp499
Rp500
ag5
(g9
S'\xd7\xa3p=\n\xd7\x05\xc0'
p501
tp502
Rp503
ag5
(g9
S'R\xb8\x1e\x85\xebQ\x08\xc0'
p504
tp505
Rp506
ag5
(g9
S'q=\n\xd7\xa3p\x0b\xc0'
p507
tp508
Rp509
ag5
(g9
S'\n\xd7\xa3p=\n\t\xc0'
p510
tp511
Rp512
ag5
(g9
S'{\x14\xaeG\xe1z\x08\xc0'
p513
tp514
Rp515
ag5
(g9
S'\x14\xaeG\xe1z\x14\x08\xc0'
p516
tp517
Rp518
ag5
(g9
S'{\x14\xaeG\xe1z\n\xc0'
p519
tp520
Rp521
ag5
(g9
S')\\\x8f\xc2\xf5(\n\xc0'
p522
tp523
Rp524
ag5
(g9
S'\xb8\x1e\x85\xebQ\xb8\x0c\xc0'
p525
tp526
Rp527
ag5
(g9
S')\\\x8f\xc2\xf5(\n\xc0'
p528
tp529
Rp530
ag5
(g9
S'H\xe1z\x14\xaeG\x07\xc0'
p531
tp532
Rp533
ag5
(g9
S'333333\x07\xc0'
p534
tp535
Rp536
ag5
(g9
S'\x14\xaeG\xe1z\x14\n\xc0'
p537
tp538
Rp539
ag5
(g9
S'R\xb8\x1e\x85\xebQ\n\xc0'
p540
tp541
Rp542
ag5
(g9
S'\xecQ\xb8\x1e\x85\xeb\t\xc0'
p543
tp544
Rp545
ag5
(g9
S'\xaeG\xe1z\x14\xae\x0b\xc0'
p546
tp547
Rp548
ag5
(g9
S'=\n\xd7\xa3p=\x08\xc0'
p549
tp550
Rp551
ag5
(g9
S'\xcd\xcc\xcc\xcc\xcc\xcc\x08\xc0'
p552
tp553
Rp554
ag5
(g9
S'\x85\xebQ\xb8\x1e\x85\x07\xc0'
p555
tp556
Rp557
ag5
(g9
S'\\\x8f\xc2\xf5(\\\t\xc0'
p558
tp559
Rp560
ag5
(g9
S'\xaeG\xe1z\x14\xae\x07\xc0'
p561
tp562
Rp563
ag5
(g9
S'\xe1z\x14\xaeG\xe1\n\xc0'
p564
tp565
Rp566
ag5
(g9
S'H\xe1z\x14\xaeG\x07\xc0'
p567
tp568
Rp569
ag5
(g9
S'\xaeG\xe1z\x14\xae\x0b\xc0'
p570
tp571
Rp572
ag5
(g9
S'\x1f\x85\xebQ\xb8\x1e\x0b\xc0'
p573
tp574
Rp575
ag5
(g9
S'R\xb8\x1e\x85\xebQ\x06\xc0'
p576
tp577
Rp578
ag5
(g9
S'\x8f\xc2\xf5(\\\x8f\x06\xc0'
p579
tp580
Rp581
ag5
(g9
S'\x00\x00\x00\x00\x00\x00\n\xc0'
p582
tp583
Rp584
ag5
(g9
S'{\x14\xaeG\xe1z\x08\xc0'
p585
tp586
Rp587
ag5
(g9
S'\xd7\xa3p=\n\xd7\t\xc0'
p588
tp589
Rp590
ag5
(g9
S'H\xe1z\x14\xaeG\x07\xc0'
p591
tp592
Rp593
ag5
(g9
S'\x9a\x99\x99\x99\x99\x99\t\xc0'
p594
tp595
Rp596
ag5
(g9
S'\x14\xaeG\xe1z\x14\n\xc0'
p597
tp598
Rp599
ag5
(g9
S'q=\n\xd7\xa3p\r\xc0'
p600
tp601
Rp602
ag5
(g9
S')\\\x8f\xc2\xf5(\n\xc0'
p603
tp604
Rp605
ag5
(g9
S'\x1f\x85\xebQ\xb8\x1e\r\xc0'
p606
tp607
Rp608
ag5
(g9
S'q=\n\xd7\xa3p\t\xc0'
p609
tp610
Rp611
ag5
(g9
S'\x14\xaeG\xe1z\x14\x0e\xc0'
p612
tp613
Rp614
ag5
(g9
S'H\xe1z\x14\xaeG\r\xc0'
p615
tp616
Rp617
ag5
(g9
S'\xcd\xcc\xcc\xcc\xcc\xcc\x0c\xc0'
p618
tp619
Rp620
ag5
(g9
S'\x00\x00\x00\x00\x00\x00\n\xc0'
p621
tp622
Rp623
ag5
(g9
S'\x00\x00\x00\x00\x00\x00\x08\xc0'
p624
tp625
Rp626
ag5
(g9
S'\xe1z\x14\xaeG\xe1\x04\xc0'
p627
tp628
Rp629
ag5
(g9
S'\x9a\x99\x99\x99\x99\x99\x07\xc0'
p630
tp631
Rp632
ag5
(g9
S'=\n\xd7\xa3p=\n\xc0'
p633
tp634
Rp635
ag5
(g9
S')\\\x8f\xc2\xf5(\x08\xc0'
p636
tp637
Rp638
ag5
(g9
S'{\x14\xaeG\xe1z\x06\xc0'
p639
tp640
Rp641
ag5
(g9
S'\xc3\xf5(\\\x8f\xc2\x07\xc0'
p642
tp643
Rp644
ag5
(g9
S'\n\xd7\xa3p=\n\t\xc0'
p645
tp646
Rp647
ag5
(g9
S'\xecQ\xb8\x1e\x85\xeb\x0b\xc0'
p648
tp649
Rp650
ag5
(g9
S'\xb8\x1e\x85\xebQ\xb8\n\xc0'
p651
tp652
Rp653
ag5
(g9
S'\x85\xebQ\xb8\x1e\x85\x0b\xc0'
p654
tp655
Rp656
ag5
(g9
S'\x00\x00\x00\x00\x00\x00\n\xc0'
p657
tp658
Rp659
ag5
(g9
S'\xd7\xa3p=\n\xd7\r\xc0'
p660
tp661
Rp662
ag5
(g9
S'\xaeG\xe1z\x14\xae\t\xc0'
p663
tp664
Rp665
ag5
(g9
S'\xf6(\\\x8f\xc2\xf5\n\xc0'
p666
tp667
Rp668
ag5
(g9
S'R\xb8\x1e\x85\xebQ\x0c\xc0'
p669
tp670
Rp671
ag5
(g9
S'{\x14\xaeG\xe1z\x0c\xc0'
p672
tp673
Rp674
ag5
(g9
S'\x85\xebQ\xb8\x1e\x85\t\xc0'
p675
tp676
Rp677
ag5
(g9
S'\x00\x00\x00\x00\x00\x00\n\xc0'
p678
tp679
Rp680
ag5
(g9
S'\x85\xebQ\xb8\x1e\x85\x0b\xc0'
p681
tp682
Rp683
ag5
(g9
S'\x9a\x99\x99\x99\x99\x99\t\xc0'
p684
tp685
Rp686
ag5
(g9
S')\\\x8f\xc2\xf5(\n\xc0'
p687
tp688
Rp689
ag5
(g9
S'\x14\xaeG\xe1z\x14\x0c\xc0'
p690
tp691
Rp692
ag5
(g9
S'333333\t\xc0'
p693
tp694
Rp695
ag5
(g9
S'q=\n\xd7\xa3p\t\xc0'
p696
tp697
Rp698
ag5
(g9
S'ffffff\n\xc0'
p699
tp700
Rp701
ag5
(g9
S'\xaeG\xe1z\x14\xae\t\xc0'
p702
tp703
Rp704
ag5
(g9
S'\xf6(\\\x8f\xc2\xf5\x06\xc0'
p705
tp706
Rp707
ag5
(g9
S'\x85\xebQ\xb8\x1e\x85\x07\xc0'
p708
tp709
Rp710
ag5
(g9
S'\\\x8f\xc2\xf5(\\\x05\xc0'
p711
tp712
Rp713
ag5
(g9
S'\x14\xaeG\xe1z\x14\x06\xc0'
p714
tp715
Rp716
ag5
(g9
S'H\xe1z\x14\xaeG\t\xc0'
p717
tp718
Rp719
ag5
(g9
S'q=\n\xd7\xa3p\x0b\xc0'
p720
tp721
Rp722
ag5
(g9
S'=\n\xd7\xa3p=\x0c\xc0'
p723
tp724
Rp725
ag5
(g9
S'\xaeG\xe1z\x14\xae\x0b\xc0'
p726
tp727
Rp728
ag5
(g9
S'\xb8\x1e\x85\xebQ\xb8\n\xc0'
p729
tp730
Rp731
ag5
(g9
S'\x9a\x99\x99\x99\x99\x99\x07\xc0'
p732
tp733
Rp734
ag5
(g9
S'q=\n\xd7\xa3p\x05\xc0'
p735
tp736
Rp737
ag5
(g9
S'q=\n\xd7\xa3p\x07\xc0'
p738
tp739
Rp740
ag5
(g9
S')\\\x8f\xc2\xf5(\x08\xc0'
p741
tp742
Rp743
ag5
(g9
S'\\\x8f\xc2\xf5(\\\x07\xc0'
p744
tp745
Rp746
ag5
(g9
S'\xcd\xcc\xcc\xcc\xcc\xcc\n\xc0'
p747
tp748
Rp749
ag5
(g9
S'\x9a\x99\x99\x99\x99\x99\x05\xc0'
p750
tp751
Rp752
ag5
(g9
S'\xcd\xcc\xcc\xcc\xcc\xcc\x04\xc0'
p753
tp754
Rp755
ag5
(g9
S'\xecQ\xb8\x1e\x85\xeb\x07\xc0'
p756
tp757
Rp758
ag5
(g9
S'q=\n\xd7\xa3p\r\xc0'
p759
tp760
Rp761
ag5
(g9
S'\x8f\xc2\xf5(\\\x8f\x0c\xc0'
p762
tp763
Rp764
ag5
(g9
S'\x8f\xc2\xf5(\\\x8f\n\xc0'
p765
tp766
Rp767
ag5
(g9
S'\xe1z\x14\xaeG\xe1\x0c\xc0'
p768
tp769
Rp770
ag5
(g9
S'\xb8\x1e\x85\xebQ\xb8\x08\xc0'
p771
tp772
Rp773
ag5
(g9
S'\xecQ\xb8\x1e\x85\xeb\x07\xc0'
p774
tp775
Rp776
ag5
(g9
S'\xecQ\xb8\x1e\x85\xeb\x05\xc0'
p777
tp778
Rp779
ag5
(g9
S'\xcd\xcc\xcc\xcc\xcc\xcc\x08\xc0'
p780
tp781
Rp782
ag5
(g9
S'\xa4p=\n\xd7\xa3\x0c\xc0'
p783
tp784
Rp785
ag5
(g9
S'ffffff\x0c\xc0'
p786
tp787
Rp788
ag5
(g9
S'{\x14\xaeG\xe1z\n\xc0'
p789
tp790
Rp791
ag5
(g9
S'\x00\x00\x00\x00\x00\x00\n\xc0'
p792
tp793
Rp794
ag5
(g9
S'\xf6(\\\x8f\xc2\xf5\x06\xc0'
p795
tp796
Rp797
ag5
(g9
S'ffffff\x08\xc0'
p798
tp799
Rp800
ag5
(g9
S'\x1f\x85\xebQ\xb8\x1e\t\xc0'
p801
tp802
Rp803
ag5
(g9
S'\n\xd7\xa3p=\n\t\xc0'
p804
tp805
Rp806
ag5
(g9
S'\xf6(\\\x8f\xc2\xf5\n\xc0'
p807
tp808
Rp809
ag5
(g9
S'\x85\xebQ\xb8\x1e\x85\t\xc0'
p810
tp811
Rp812
ag5
(g9
S'{\x14\xaeG\xe1z\x04\xc0'
p813
tp814
Rp815
ag5
(g9
S'\xcd\xcc\xcc\xcc\xcc\xcc\x06\xc0'
p816
tp817
Rp818
ag5
(g9
S'\xaeG\xe1z\x14\xae\t\xc0'
p819
tp820
Rp821
ag5
(g9
S'ffffff\x08\xc0'
p822
tp823
Rp824
ag5
(g9
S'\xecQ\xb8\x1e\x85\xeb\t\xc0'
p825
tp826
Rp827
ag5
(g9
S'{\x14\xaeG\xe1z\x0c\xc0'
p828
tp829
Rp830
ag5
(g9
S'q=\n\xd7\xa3p\r\xc0'
p831
tp832
Rp833
ag5
(g9
S'q=\n\xd7\xa3p\x0b\xc0'
p834
tp835
Rp836
asS'diff'
p837
(lp838
I0
aI417
aI903
aI1433
aI2063
aI2748
aI3493
aI4311
aI5199
aI6127
aI7141
aI8224
aI9486
aI10725
aI12036
aI13542
aI15047
aI16618
aI18251
aI19984
aI21727
aI23594
aI25507
aI27479
aI29555
aI31607
aI33799
aI36108
aI38429
aI40845
aI43365
aI45952
aI48642
aI51398
aI54243
aI57037
aI59965
aI62921
aI66014
aI69090
aI72243
aI75462
aI78842
aI82283
aI85726
aI89375
aI92985
aI96598
aI100371
aI104313
aI108212
aI112199
aI116246
aI120122
aI124273
aI128414
aI132696
aI137146
aI141450
aI145854
aI150445
aI155061
aI159641
aI164520
aI169392
aI174204
aI179061
aI184161
aI189285
aI194549
aI199775
aI205133
aI210535
aI216072
aI221676
aI227239
aI232954
aI238732
aI244657
aI250781
aI256904
aI263144
aI269363
aI275684
aI282028
aI288517
aI295254
aI301829
aI308445
aI315172
aI322026
aI328876
aI335655
aI342587
aI349595
aI356806
aI364161
aI371539
aI378930
aI386325
aI393663
aI400790
aI407925
aI415282
aI422622
aI429973
aI437403
aI444655
aI451931
aI459344
aI466503
aI473705
aI480900
aI488014
aI495353
aI502859
aI510226
aI517607
aI525151
aI532717
aI540274
aI547698
aI555169
aI562451
aI569952
aI577556
aI585361
aI592894
aI600519
aI608108
aI615659
aI623267
aI630958
aI638551
aI646196
aI653966
aI661709
aI669301
aI676958
aI684861
aI692390
aI700027
aI707743
aI715410
aI723281
aI731179
aI739132
aI746933
aI754617
aI762348
aI769979
aI777505
aI785160
aI792833
aI800343
aI807832
aI815364
aI822579
aI830183
aI837926
aI845692
aI853448
aI861312
aI869343
aI877165
aI884999
aI892727
aI900616
aI908423
aI916185
aI924015
aI931517
aI939049
aI946602
aI953783
aI961158
aI968441
aI976120
aI983570
aI991098
aI998482
aI1005988
aI1013440
aI1020951
aI1028657
aI1036395
aI1044109
aI1051773
aI1059406
aI1067165
aI1074968
aI1082902
aI1090708
aI1098301
aI1105917
aI1113501
aI1121151
aI1128824
aI1136521
aI1144079
aI1151608
aI1159273
aI1167019
aI1174755
aI1182398
aI1190057
aI1197995
aI1206012
aI1213765
aI1221356
aI1229138
aI1236929
aI1244749
aI1252403
aI1260439
aI1268174
aI1276053
aI1283857
aI1291630
aI1299492
aI1307430
aI1315494
aI1323371
aI1331402
aI1339602
aI1347694
aI1355901
aI1363958
aI1372180
aI1380167
aI1388167
aI1396251
aI1404507
aI1412623
aI1420655
aI1428703
aI1436678
aI1444689
aI1452552
aI1460333
aI1468219
aI1476187
aI1484275
aI1492314
aI1500244
aI1508320
aI1516343
aI1524319
aI1532355
aI1540301
aI1548244
aI1556108
aI1564091
aI1572100
aI1580129
aI1588133
aI1596071
aI1604104
aI1612355
aI1620713
aI1628900
aI1637227
aI1645444
aI1653530
aI1661569
aI1669631
aI1677623
aI1685685
aI1693724
aI1701743
aI1709741
aI1717926
aI1726220
aI1734678
aI1742972
aI1751104
asS'exploration_log'
p839
(lp840
F0.946
aF0.9369999999999999
aF0.9279999999999999
aF0.919
aF0.91
aF0.901
aF0.892
aF0.883
aF0.874
aF0.865
aF0.856
aF0.847
aF0.838
aF0.829
aF0.82
aF0.8109999999999999
aF0.802
aF0.7929999999999999
aF0.784
aF0.775
aF0.766
aF0.757
aF0.748
aF0.739
aF0.73
aF0.721
aF0.712
aF0.703
aF0.694
aF0.685
aF0.6759999999999999
aF0.667
aF0.6579999999999999
aF0.649
aF0.6399999999999999
aF0.631
aF0.622
aF0.613
aF0.604
aF0.595
aF0.586
aF0.577
aF0.5680000000000001
aF0.5589999999999999
aF0.55
aF0.5409999999999999
aF0.532
aF0.5229999999999999
aF0.514
aF0.5049999999999999
aF0.4959999999999999
aF0.487
aF0.478
aF0.469
aF0.45999999999999996
aF0.45099999999999996
aF0.44199999999999995
aF0.43299999999999994
aF0.42399999999999993
aF0.4149999999999999
aF0.4059999999999999
aF0.3969999999999999
aF0.3879999999999999
aF0.379
aF0.37
aF0.361
aF0.352
aF0.34299999999999997
aF0.33399999999999996
aF0.32499999999999996
aF0.31599999999999995
aF0.30699999999999994
aF0.29799999999999993
aF0.2889999999999999
aF0.2799999999999999
aF0.2709999999999999
aF0.262
aF0.253
aF0.244
aF0.235
aF0.22599999999999998
aF0.21699999999999997
aF0.20799999999999996
aF0.19899999999999995
aF0.18999999999999995
aF0.18099999999999994
aF0.17199999999999993
aF0.16299999999999992
aF0.15400000000000003
aF0.14500000000000002
aF0.136
aF0.127
aF0.118
aF0.10899999999999999
aF0.1
aF0.099775
aF0.09955
aF0.09932500000000001
aF0.09910000000000001
aF0.098875
aF0.09865
aF0.098425
aF0.09820000000000001
aF0.097975
aF0.09775
aF0.097525
aF0.09730000000000001
aF0.09707500000000001
aF0.09685
aF0.096625
aF0.0964
aF0.09617500000000001
aF0.09595000000000001
aF0.095725
aF0.0955
aF0.095275
aF0.09505000000000001
aF0.094825
aF0.0946
aF0.094375
aF0.09415000000000001
aF0.09392500000000001
aF0.0937
aF0.093475
aF0.09325
aF0.09302500000000001
aF0.09280000000000001
aF0.092575
aF0.09235
aF0.09212500000000001
aF0.09190000000000001
aF0.091675
aF0.09145
aF0.091225
aF0.091
aF0.09077500000000001
aF0.09055
aF0.090325
aF0.0901
aF0.08987500000000001
aF0.08965000000000001
aF0.089425
aF0.0892
aF0.088975
aF0.08875000000000001
aF0.088525
aF0.0883
aF0.088075
aF0.08785
aF0.08762500000000001
aF0.0874
aF0.087175
aF0.08695
aF0.08672500000000001
aF0.08650000000000001
aF0.086275
aF0.08605
aF0.085825
aF0.08560000000000001
aF0.085375
aF0.08515
aF0.084925
aF0.0847
aF0.08447500000000001
aF0.08425
aF0.084025
aF0.0838
aF0.08357500000000001
aF0.08335000000000001
aF0.083125
aF0.0829
aF0.082675
aF0.08245
aF0.082225
aF0.082
aF0.081775
aF0.08155000000000001
aF0.08132500000000001
aF0.0811
aF0.080875
aF0.08065
aF0.080425
aF0.08020000000000001
aF0.079975
aF0.07975
aF0.079525
aF0.07930000000000001
aF0.079075
aF0.07885
aF0.078625
aF0.0784
aF0.07817500000000001
aF0.07795
aF0.077725
aF0.0775
aF0.07727500000000001
aF0.07705000000000001
aF0.076825
aF0.0766
aF0.076375
aF0.07615
aF0.075925
aF0.0757
aF0.075475
aF0.07525
aF0.07502500000000001
aF0.0748
aF0.074575
aF0.07435
aF0.074125
aF0.07390000000000001
aF0.073675
aF0.07345
aF0.073225
aF0.07300000000000001
aF0.072775
aF0.07255
aF0.072325
aF0.0721
aF0.071875
aF0.07165
aF0.071425
aF0.0712
aF0.070975
aF0.07075000000000001
aF0.070525
aF0.0703
aF0.070075
aF0.06985
aF0.06962499999999999
aF0.0694
aF0.069175
aF0.06895000000000001
aF0.06872500000000001
aF0.0685
aF0.068275
aF0.06805
aF0.067825
aF0.0676
aF0.067375
aF0.06715
aF0.06692500000000001
aF0.06670000000000001
aF0.066475
aF0.06625
aF0.066025
aF0.0658
aF0.065575
aF0.06534999999999999
aF0.065125
aF0.0649
aF0.06467500000000001
aF0.06445000000000001
aF0.064225
aF0.064
aF0.063775
aF0.06355
aF0.063325
aF0.0631
aF0.062875
aF0.06265000000000001
aF0.062425
aF0.062200000000000005
aF0.061975
aF0.06175
aF0.061525
aF0.0613
aF0.061075000000000004
aF0.06085
aF0.060625
aF0.0604
aF0.060175
aF0.05995
aF0.059725
aF0.0595
asS'best_mean_log'
p841
(lp842
F-inf
aF-inf
aF-inf
ag5
(g9
S'{\x14\xaeG\xe1\xfa0\xc0'
p843
tp844
Rp845
ag5
(g9
S'\xcd\xcc\xcc\xcc\xcc\xcc/\xc0'
p846
tp847
Rp848
ag5
(g9
S'q=\n\xd7\xa3p-\xc0'
p849
tp850
Rp851
ag5
(g9
S'H\xe1z\x14\xaeG+\xc0'
p852
tp853
Rp854
ag5
(g9
S'\x9a\x99\x99\x99\x99\x19*\xc0'
p855
tp856
Rp857
ag5
(g9
S'\xc3\xf5(\\\x8fB)\xc0'
p858
tp859
Rp860
ag5
(g9
S'\xd7\xa3p=\nW(\xc0'
p861
tp862
Rp863
ag5
(g9
S"\xc3\xf5(\\\x8f\xc2'\xc0"
p864
tp865
Rp866
ag5
(g9
S"\n\xd7\xa3p=\n'\xc0"
p867
tp868
Rp869
ag5
(g9
S'\x8f\xc2\xf5(\\\x8f&\xc0'
p870
tp871
Rp872
ag5
(g9
S'\x9a\x99\x99\x99\x99\x99%\xc0'
p873
tp874
Rp875
ag5
(g9
S'\xecQ\xb8\x1e\x85\xeb$\xc0'
p876
tp877
Rp878
ag5
(g9
S'\xa4p=\n\xd7#$\xc0'
p879
tp880
Rp881
ag5
(g9
S'\xc3\xf5(\\\x8fB#\xc0'
p882
tp883
Rp884
ag5
(g9
S'\x14\xaeG\xe1z\x14#\xc0'
p885
tp886
Rp887
ag5
(g9
S'ffffff"\xc0'
p888
tp889
Rp890
ag5
(g9
S'\xf6(\\\x8f\xc2\xf5!\xc0'
p891
tp892
Rp893
ag5
(g9
S'\x9a\x99\x99\x99\x99\x99!\xc0'
p894
tp895
Rp896
ag5
(g9
S'\xa4p=\n\xd7#!\xc0'
p897
tp898
Rp899
ag899
ag5
(g9
S'\xd7\xa3p=\nW \xc0'
p900
tp901
Rp902
ag5
(g9
S'\xb8\x1e\x85\xebQ\xb8\x1f\xc0'
p903
tp904
Rp905
ag5
(g9
S'\xa4p=\n\xd7\xa3\x1e\xc0'
p906
tp907
Rp908
ag5
(g9
S'{\x14\xaeG\xe1z\x1e\xc0'
p909
tp910
Rp911
ag5
(g9
S'\\\x8f\xc2\xf5(\\\x1d\xc0'
p912
tp913
Rp914
ag5
(g9
S'=\n\xd7\xa3p=\x1d\xc0'
p915
tp916
Rp917
ag5
(g9
S'\n\xd7\xa3p=\n\x1c\xc0'
p918
tp919
Rp920
ag5
(g9
S'ffffff\x1b\xc0'
p921
tp922
Rp923
ag5
(g9
S')\\\x8f\xc2\xf5(\x1a\xc0'
p924
tp925
Rp926
ag5
(g9
S'ffffff\x19\xc0'
p927
tp928
Rp929
ag5
(g9
S'\x00\x00\x00\x00\x00\x00\x19\xc0'
p930
tp931
Rp932
ag5
(g9
S'q=\n\xd7\xa3p\x18\xc0'
p933
tp934
Rp935
ag935
ag5
(g9
S'=\n\xd7\xa3p=\x18\xc0'
p936
tp937
Rp938
ag938
ag5
(g9
S'\xe1z\x14\xaeG\xe1\x17\xc0'
p939
tp940
Rp941
ag941
ag5
(g9
S'=\n\xd7\xa3p=\x17\xc0'
p942
tp943
Rp944
ag5
(g9
S'\xc3\xf5(\\\x8f\xc2\x16\xc0'
p945
tp946
Rp947
ag947
ag947
ag5
(g9
S'\xc3\xf5(\\\x8f\xc2\x15\xc0'
p948
tp949
Rp950
ag5
(g9
S'\xecQ\xb8\x1e\x85\xeb\x14\xc0'
p951
tp952
Rp953
ag953
ag5
(g9
S'\xb8\x1e\x85\xebQ\xb8\x14\xc0'
p954
tp955
Rp956
ag956
ag956
ag5
(g9
S'\x1f\x85\xebQ\xb8\x1e\x14\xc0'
p957
tp958
Rp959
ag5
(g9
S'\x14\xaeG\xe1z\x14\x13\xc0'
p960
tp961
Rp962
ag962
ag5
(g9
S'\xc3\xf5(\\\x8f\xc2\x12\xc0'
p963
tp964
Rp965
ag965
ag965
ag5
(g9
S'=\n\xd7\xa3p=\x12\xc0'
p966
tp967
Rp968
ag5
(g9
S'\xf6(\\\x8f\xc2\xf5\x11\xc0'
p969
tp970
Rp971
ag971
ag971
ag5
(g9
S'\\\x8f\xc2\xf5(\\\x11\xc0'
p972
tp973
Rp974
ag5
(g9
S'\xaeG\xe1z\x14\xae\x10\xc0'
p975
tp976
Rp977
ag977
ag977
ag5
(g9
S'=\n\xd7\xa3p=\x10\xc0'
p978
tp979
Rp980
ag5
(g9
S'\n\xd7\xa3p=\n\x0f\xc0'
p981
tp982
Rp983
ag5
(g9
S'\x9a\x99\x99\x99\x99\x99\r\xc0'
p984
tp985
Rp986
ag986
ag986
ag986
ag986
ag986
ag986
ag986
ag986
ag986
ag986
ag986
ag5
(g9
S'\x1f\x85\xebQ\xb8\x1e\r\xc0'
p987
tp988
Rp989
ag5
(g9
S'\xa4p=\n\xd7\xa3\x0c\xc0'
p990
tp991
Rp992
ag992
ag992
ag992
ag992
ag5
(g9
S'\xb8\x1e\x85\xebQ\xb8\n\xc0'
p993
tp994
Rp995
ag995
ag995
ag995
ag5
(g9
S'333333\t\xc0'
p996
tp997
Rp998
ag998
ag998
ag998
ag998
ag998
ag5
(g9
S'R\xb8\x1e\x85\xebQ\x08\xc0'
p999
tp1000
Rp1001
ag1001
ag5
(g9
S'\xecQ\xb8\x1e\x85\xeb\x07\xc0'
p1002
tp1003
Rp1004
ag1004
ag1004
ag1004
ag5
(g9
S'\x9a\x99\x99\x99\x99\x99\x07\xc0'
p1005
tp1006
Rp1007
ag5
(g9
S'\xa4p=\n\xd7\xa3\x06\xc0'
p1008
tp1009
Rp1010
ag1010
ag1010
ag1010
ag1010
ag1010
ag1010
ag1010
ag1010
ag1010
ag1010
ag1010
ag1010
ag5
(g9
S'\xe1z\x14\xaeG\xe1\x04\xc0'
p1011
tp1012
Rp1013
ag1013
ag1013
ag1013
ag1013
ag1013
ag1013
ag1013
ag1013
ag1013
ag1013
ag1013
ag1013
ag1013
ag1013
ag1013
ag1013
ag1013
ag1013
ag1013
ag1013
ag1013
ag1013
ag1013
ag1013
ag1013
ag1013
ag1013
ag1013
ag1013
ag1013
ag1013
ag1013
ag1013
ag1013
ag1013
ag1013
ag1013
ag1013
ag1013
ag1013
ag1013
ag1013
ag1013
ag5
(g9
S'\xaeG\xe1z\x14\xae\x03\xc0'
p1014
tp1015
Rp1016
ag1016
ag1016
ag1016
ag1016
ag1016
ag1016
ag1016
ag1016
ag1016
ag1016
ag1016
ag1016
ag1016
ag1016
ag1016
ag1016
ag1016
ag1016
ag1016
ag1016
ag1016
ag1016
ag1016
ag1016
ag1016
ag1016
ag1016
ag1016
ag1016
ag1016
ag1016
ag1016
ag1016
ag1016
ag1016
ag1016
ag1016
ag1016
ag1016
ag1016
ag1016
ag1016
ag1016
ag1016
ag1016
ag1016
ag1016
ag1016
ag1016
ag1016
ag1016
ag1016
ag1016
ag1016
ag1016
ag1016
ag1016
ag1016
ag1016
ag1016
ag1016
ag1016
ag1016
ag1016
ag1016
ag1016
ag1016
ag1016
ag1016
ag1016
ag1016
ag1016
ag1016
ag1016
ag1016
ag1016
ag1016
ag1016
ag1016
ag1016
ag1016
ag1016
ag1016
ag5
(g9
S'\x9a\x99\x99\x99\x99\x99\x03\xc0'
p1017
tp1018
Rp1019
ag1019
ag1019
ag1019
ag1019
ag5
(g9
S')\\\x8f\xc2\xf5(\x02\xc0'
p1020
tp1021
Rp1022
ag1022
ag1022
ag1022
ag1022
ag1022
ag1022
ag1022
ag1022
ag1022
ag1022
ag1022
ag1022
ag1022
ag1022
ag1022
ag1022
ag1022
ag1022
ag1022
ag1022
ag1022
ag1022
ag1022
ag1022
ag1022
ag1022
ag1022
asS'episodes_log'
p1023
(lp1024
I67
aI81
aI96
aI112
aI128
aI145
aI163
aI181
aI200
aI219
aI238
aI259
aI280
aI301
aI324
aI347
aI373
aI397
aI423
aI448
aI475
aI503
aI530
aI560
aI588
aI618
aI648
aI680
aI711
aI743
aI775
aI809
aI845
aI881
aI915
aI951
aI987
aI1025
aI1062
aI1100
aI1140
aI1180
aI1220
aI1260
aI1302
aI1344
aI1387
aI1430
aI1474
aI1519
aI1563
aI1609
aI1655
aI1703
aI1750
aI1798
aI1847
aI1897
aI1947
aI1999
aI2049
aI2103
aI2157
aI2211
aI2268
aI2321
aI2377
aI2433
aI2491
aI2550
aI2609
aI2669
aI2729
aI2790
aI2852
aI2916
aI2979
aI3043
aI3106
aI3172
aI3238
aI3304
aI3372
aI3441
aI3509
aI3582
aI3653
aI3724
aI3797
aI3871
aI3942
aI4016
aI4092
aI4167
aI4244
aI4320
aI4398
aI4475
aI4553
aI4631
aI4707
aI4784
aI4859
aI4934
aI5010
aI5087
aI5163
aI5239
aI5316
aI5393
aI5469
aI5548
aI5625
aI5701
aI5779
aI5856
aI5932
aI6011
aI6088
aI6166
aI6244
aI6322
aI6400
aI6477
aI6553
aI6631
aI6709
aI6787
aI6865
aI6941
aI7018
aI7094
aI7172
aI7248
aI7327
aI7408
aI7487
aI7564
aI7643
aI7721
aI7799
aI7877
aI7957
aI8036
aI8117
aI8195
aI8273
aI8351
aI8430
aI8507
aI8584
aI8661
aI8742
aI8819
aI8897
aI8974
aI9051
aI9132
aI9213
aI9294
aI9373
aI9452
aI9533
aI9612
aI9691
aI9768
aI9848
aI9928
aI10006
aI10085
aI10163
aI10242
aI10319
aI10395
aI10471
aI10545
aI10625
aI10703
aI10782
aI10861
aI10940
aI11016
aI11093
aI11172
aI11249
aI11328
aI11408
aI11488
aI11567
aI11644
aI11723
aI11803
aI11881
aI11958
aI12037
aI12115
aI12195
aI12275
aI12351
aI12427
aI12507
aI12587
aI12665
aI12744
aI12822
aI12903
aI12982
aI13060
aI13136
aI13214
aI13293
aI13372
aI13449
aI13530
aI13607
aI13687
aI13767
aI13845
aI13924
aI14005
aI14085
aI14163
aI14244
aI14325
aI14406
aI14487
aI14568
aI14649
aI14729
aI14809
aI14889
aI14970
aI15050
aI15130
aI15209
aI15288
aI15367
aI15443
aI15520
aI15598
aI15679
aI15760
aI15841
aI15920
aI16000
aI16079
aI16156
aI16236
aI16315
aI16394
aI16473
aI16552
aI16630
aI16710
aI16791
aI16871
aI16953
aI17034
aI17115
aI17195
aI17276
aI17356
aI17436
aI17516
aI17597
aI17675
aI17757
aI17837
aI17917
aI17997
aI18078
aI18160
aI18243
aI18325
aI18406
asS'same'
p1025
(lp1026
I0
aI65
aI162
aI294
aI457
aI598
aI777
aI1022
aI1248
aI1504
aI1743
aI1992
aI2248
aI2580
aI2919
aI3234
aI3573
aI3943
aI4286
aI4664
aI5081
aI5555
aI6004
aI6513
aI7061
aI7625
aI8150
aI8725
aI9281
aI9852
aI10383
aI10979
aI11587
aI12263
aI12921
aI13690
aI14426
aI15181
aI15937
aI16735
aI17560
aI18443
aI19291
aI20224
aI21126
aI21971
aI22897
aI23853
aI24786
aI25717
aI26729
aI27779
aI28866
aI30020
aI31199
aI32383
aI33586
aI34664
aI35946
aI37225
aI38502
aI39769
aI41212
aI42452
aI43737
aI45143
aI46655
aI48034
aI49367
aI50736
aI52228
aI53663
aI55115
aI56531
aI58001
aI59538
aI61085
aI62668
aI64168
aI65544
aI67031
aI68529
aI70077
aI71630
aI73282
aI74840
aI76342
aI78047
aI79763
aI81470
aI83163
aI84887
aI86776
aI88649
aI90513
aI92320
aI93901
aI95508
aI97118
aI98714
aI100378
aI102239
aI104079
aI105696
aI107395
aI109029
aI110603
aI112378
aI114169
aI115829
aI117726
aI119595
aI121427
aI123352
aI125048
aI126605
aI128276
aI129912
aI131455
aI132960
aI134433
aI136004
aI137597
aI139366
aI140946
aI142350
aI143644
aI145163
aI146611
aI148067
aI149633
aI151070
aI152435
aI153946
aI155379
aI156689
aI158053
aI159579
aI160975
aI162209
aI163771
aI165230
aI166629
aI168022
aI169251
aI170523
aI171676
aI172963
aI174416
aI175784
aI177315
aI178858
aI180344
aI181797
aI183417
aI185095
aI186724
aI188663
aI190204
aI191630
aI193002
aI194386
aI195671
aI196843
aI198145
aI199470
aI200894
aI202162
aI203473
aI204877
aI206266
aI207928
aI209578
aI211171
aI213134
aI214948
aI216812
aI218339
aI220054
aI221719
aI223567
aI225294
aI227048
aI228722
aI230218
aI231691
aI233201
aI234696
aI236255
aI237727
aI239130
aI240385
aI241777
aI243410
aI245000
aI246635
aI248205
aI249793
aI251328
aI252949
aI254649
aI256261
aI257752
aI259262
aI260821
aI262426
aI263737
aI264939
aI266439
aI268113
aI269583
aI271043
aI272484
aI274116
aI275344
aI276870
aI278316
aI279805
aI281288
aI282724
aI284095
aI285294
aI286639
aI287899
aI288944
aI290140
aI291214
aI292425
aI293533
aI294828
aI296146
aI297317
aI298347
aI299518
aI300806
aI302089
aI303459
aI304775
aI306204
aI307714
aI309156
aI310518
aI311789
aI313083
aI314464
aI315722
aI317017
aI318310
aI319633
aI321037
aI322460
aI323900
aI325278
aI326638
aI327969
aI329340
aI330758
aI332082
aI333213
aI334231
aI335400
aI336489
aI337621
aI338929
aI340308
aI341651
aI343082
aI344408
aI345766
aI347118
aI348521
aI349684
aI350812
aI351767
aI352897
aI354151
asS'learning_rate_log'
p1027
(lp1028
F0.0001
aF0.0001
aF0.0001
aF0.0001
aF0.0001
aF0.0001
aF0.0001
aF0.0001
aF0.0001
aF0.0001
aF0.0001
aF0.0001
aF0.0001
aF0.0001
aF0.0001
aF0.0001
aF0.0001
aF0.0001
aF0.0001
aF0.0001
aF0.0001
aF0.0001
aF0.0001
aF0.0001
aF0.0001
aF0.0001
aF0.0001
aF0.0001
aF0.0001
aF0.0001
aF0.0001
aF0.0001
aF0.0001
aF0.0001
aF0.0001
aF0.0001
aF0.0001
aF0.0001
aF0.0001
aF0.0001
aF0.0001
aF0.0001
aF0.0001
aF0.0001
aF0.0001
aF0.0001
aF0.0001
aF0.0001
aF0.0001
aF0.0001
aF0.0001
aF0.0001
aF0.0001
aF0.0001
aF0.0001
aF0.0001
aF0.0001
aF0.0001
aF0.0001
aF0.0001
aF0.0001
aF0.0001
aF0.0001
aF0.0001
aF0.0001
aF0.0001
aF0.0001
aF0.0001
aF0.0001
aF0.0001
aF0.0001
aF0.0001
aF0.0001
aF0.0001
aF0.0001
aF0.0001
aF0.0001
aF0.0001
aF0.0001
aF0.0001
aF0.0001
aF0.0001
aF0.0001
aF0.0001
aF0.0001
aF0.0001
aF0.0001
aF0.0001
aF0.0001
aF0.0001
aF0.0001
aF0.0001
aF0.0001
aF0.0001
aF0.0001
aF9.9875e-05
aF9.975e-05
aF9.962500000000001e-05
aF9.95e-05
aF9.9375e-05
aF9.925e-05
aF9.912500000000001e-05
aF9.900000000000001e-05
aF9.8875e-05
aF9.875e-05
aF9.8625e-05
aF9.850000000000001e-05
aF9.8375e-05
aF9.825e-05
aF9.8125e-05
aF9.800000000000001e-05
aF9.787500000000001e-05
aF9.775e-05
aF9.7625e-05
aF9.75e-05
aF9.737500000000001e-05
aF9.725e-05
aF9.7125e-05
aF9.7e-05
aF9.687500000000001e-05
aF9.675000000000001e-05
aF9.6625e-05
aF9.65e-05
aF9.6375e-05
aF9.625000000000001e-05
aF9.6125e-05
aF9.6e-05
aF9.5875e-05
aF9.575000000000001e-05
aF9.562500000000001e-05
aF9.55e-05
aF9.5375e-05
aF9.525000000000001e-05
aF9.512500000000001e-05
aF9.5e-05
aF9.4875e-05
aF9.475e-05
aF9.462500000000001e-05
aF9.45e-05
aF9.4375e-05
aF9.425e-05
aF9.412500000000001e-05
aF9.400000000000001e-05
aF9.3875e-05
aF9.375e-05
aF9.3625e-05
aF9.350000000000001e-05
aF9.3375e-05
aF9.325e-05
aF9.3125e-05
aF9.300000000000001e-05
aF9.287500000000001e-05
aF9.275e-05
aF9.2625e-05
aF9.25e-05
aF9.237500000000001e-05
aF9.225e-05
aF9.2125e-05
aF9.2e-05
aF9.1875e-05
aF9.175000000000001e-05
aF9.1625e-05
aF9.15e-05
aF9.137500000000001e-05
aF9.125000000000001e-05
aF9.1125e-05
aF9.1e-05
aF9.0875e-05
aF9.075000000000001e-05
aF9.062500000000001e-05
aF9.05e-05
aF9.0375e-05
aF9.025e-05
aF9.012500000000001e-05
aF9e-05
aF8.9875e-05
aF8.975e-05
aF8.962500000000001e-05
aF8.950000000000001e-05
aF8.9375e-05
aF8.925e-05
aF8.912500000000001e-05
aF8.900000000000001e-05
aF8.8875e-05
aF8.875e-05
aF8.8625e-05
aF8.850000000000001e-05
aF8.837500000000001e-05
aF8.825e-05
aF8.8125e-05
aF8.8e-05
aF8.787500000000001e-05
aF8.775e-05
aF8.7625e-05
aF8.75e-05
aF8.737500000000001e-05
aF8.725e-05
aF8.7125e-05
aF8.7e-05
aF8.687500000000001e-05
aF8.675000000000001e-05
aF8.6625e-05
aF8.65e-05
aF8.6375e-05
aF8.625000000000001e-05
aF8.6125e-05
aF8.6e-05
aF8.5875e-05
aF8.575000000000001e-05
aF8.562500000000001e-05
aF8.55e-05
aF8.5375e-05
aF8.525000000000001e-05
aF8.512500000000001e-05
aF8.5e-05
aF8.4875e-05
aF8.475e-05
aF8.462500000000001e-05
aF8.450000000000001e-05
aF8.4375e-05
aF8.425e-05
aF8.4125e-05
aF8.400000000000001e-05
aF8.3875e-05
aF8.375e-05
aF8.3625e-05
aF8.35e-05
aF8.337500000000001e-05
aF8.325e-05
aF8.3125e-05
aF8.3e-05
aF8.2875e-05
aF8.275e-05
aF8.2625e-05
aF8.25e-05
aF8.237500000000001e-05
aF8.225000000000001e-05
aF8.2125e-05
aF8.2e-05
aF8.1875e-05
aF8.175000000000001e-05
aF8.1625e-05
aF8.15e-05
aF8.1375e-05
aF8.125e-05
aF8.112500000000001e-05
aF8.1e-05
aF8.0875e-05
aF8.075000000000001e-05
aF8.062500000000001e-05
aF8.05e-05
aF8.0375e-05
aF8.025e-05
aF8.012500000000001e-05
aF8e-05
aF7.9875e-05
aF7.975e-05
aF7.9625e-05
aF7.950000000000001e-05
aF7.9375e-05
aF7.925e-05
aF7.912500000000001e-05
aF7.900000000000001e-05
aF7.8875e-05
aF7.875e-05
aF7.8625e-05
aF7.850000000000001e-05
aF7.837500000000001e-05
aF7.825e-05
aF7.8125e-05
aF7.8e-05
aF7.787500000000001e-05
aF7.775e-05
aF7.7625e-05
aF7.75e-05
as.