(dp0
S't_log'
p1
(lp2
I60000
aI70000
aI80000
aI90000
aI100000
aI110000
aI120000
aI130000
aI140000
aI150000
aI160000
aI170000
aI180000
aI190000
aI200000
aI210000
aI220000
aI230000
aI240000
aI250000
aI260000
aI270000
aI280000
aI290000
aI300000
aI310000
aI320000
aI330000
aI340000
aI350000
aI360000
aI370000
aI380000
aI390000
aI400000
asS'mean_reward_log'
p3
(lp4
cnumpy.core.multiarray
scalar
p5
(cnumpy
dtype
p6
(S'f8'
p7
I0
I1
tp8
Rp9
(I3
S'<'
p10
NNNI-1
I-1
I0
tp11
bS'\xecQ\xb8\x1e\x85\xeb\xd1?'
p12
tp13
Rp14
ag5
(g9
S'\x9a\x99\x99\x99\x99\x99\xc9?'
p15
tp16
Rp17
ag5
(g9
S'\x9a\x99\x99\x99\x99\x99\xc9?'
p18
tp19
Rp20
ag5
(g9
S'\xa4p=\n\xd7\xa3\xd0?'
p21
tp22
Rp23
ag5
(g9
S'\xd7\xa3p=\n\xd7\xd3?'
p24
tp25
Rp26
ag5
(g9
S'ffffff\xd6?'
p27
tp28
Rp29
ag5
(g9
S'R\xb8\x1e\x85\xebQ\xc8?'
p30
tp31
Rp32
ag5
(g9
S'333333\xd3?'
p33
tp34
Rp35
ag5
(g9
S'\x8f\xc2\xf5(\\\x8f\xd2?'
p36
tp37
Rp38
ag5
(g9
S'\xe1z\x14\xaeG\xe1\xca?'
p39
tp40
Rp41
ag5
(g9
S'333333\xd3?'
p42
tp43
Rp44
ag5
(g9
S'\xa4p=\n\xd7\xa3\xd0?'
p45
tp46
Rp47
ag5
(g9
S'\xecQ\xb8\x1e\x85\xeb\xd1?'
p48
tp49
Rp50
ag5
(g9
S'R\xb8\x1e\x85\xebQ\xc8?'
p51
tp52
Rp53
ag5
(g9
S'\xb8\x1e\x85\xebQ\xb8\xce?'
p54
tp55
Rp56
ag5
(g9
S'\xb8\x1e\x85\xebQ\xb8\xce?'
p57
tp58
Rp59
ag5
(g9
S'\x9a\x99\x99\x99\x99\x99\xc9?'
p60
tp61
Rp62
ag5
(g9
S'\n\xd7\xa3p=\n\xc7?'
p63
tp64
Rp65
ag5
(g9
S'\xa4p=\n\xd7\xa3\xd0?'
p66
tp67
Rp68
ag5
(g9
S'\xa4p=\n\xd7\xa3\xd0?'
p69
tp70
Rp71
ag5
(g9
S')\\\x8f\xc2\xf5(\xcc?'
p72
tp73
Rp74
ag5
(g9
S'\xa4p=\n\xd7\xa3\xd0?'
p75
tp76
Rp77
ag5
(g9
S'R\xb8\x1e\x85\xebQ\xc8?'
p78
tp79
Rp80
ag5
(g9
S'\xc3\xf5(\\\x8f\xc2\xc5?'
p81
tp82
Rp83
ag5
(g9
S'\x9a\x99\x99\x99\x99\x99\xc9?'
p84
tp85
Rp86
ag5
(g9
S'\xc3\xf5(\\\x8f\xc2\xc5?'
p87
tp88
Rp89
ag5
(g9
S'\xecQ\xb8\x1e\x85\xeb\xc1?'
p90
tp91
Rp92
ag5
(g9
S'\xb8\x1e\x85\xebQ\xb8\xbe?'
p93
tp94
Rp95
ag5
(g9
S'R\xb8\x1e\x85\xebQ\xc8?'
p96
tp97
Rp98
ag5
(g9
S'\n\xd7\xa3p=\n\xc7?'
p99
tp100
Rp101
ag5
(g9
S'\xe1z\x14\xaeG\xe1\xca?'
p102
tp103
Rp104
ag5
(g9
S'\n\xd7\xa3p=\n\xb7?'
p105
tp106
Rp107
ag5
(g9
S'333333\xc3?'
p108
tp109
Rp110
ag5
(g9
S'\x00\x00\x00\x00\x00\x00\xd0?'
p111
tp112
Rp113
ag5
(g9
S'333333\xc3?'
p114
tp115
Rp116
asS'diff'
p117
(lp118
I0
aI394
aI874
aI1423
aI2074
aI2755
aI3530
aI4404
aI5283
aI6178
aI7143
aI8199
aI9396
aI10632
aI11913
aI13323
aI14795
aI16400
aI17987
aI19727
aI21430
aI23288
aI25179
aI27165
aI29204
aI31279
aI33429
aI35721
aI38011
aI40361
aI42780
aI45305
aI47931
aI50603
aI53343
aI56123
asS'exploration_log'
p119
(lp120
F0.946
aF0.9369999999999999
aF0.9279999999999999
aF0.919
aF0.91
aF0.901
aF0.892
aF0.883
aF0.874
aF0.865
aF0.856
aF0.847
aF0.838
aF0.829
aF0.82
aF0.8109999999999999
aF0.802
aF0.7929999999999999
aF0.784
aF0.775
aF0.766
aF0.757
aF0.748
aF0.739
aF0.73
aF0.721
aF0.712
aF0.703
aF0.694
aF0.685
aF0.6759999999999999
aF0.667
aF0.6579999999999999
aF0.649
aF0.6399999999999999
asS'best_mean_log'
p121
(lp122
g5
(g9
S'q=\n\xd7\xa3p\xdd?'
p123
tp124
Rp125
ag125
ag125
ag125
ag125
ag125
ag125
ag125
ag125
ag5
(g9
S'\x14\xaeG\xe1z\x14\xde?'
p126
tp127
Rp128
ag128
ag128
ag128
ag128
ag128
ag128
ag128
ag128
ag128
ag128
ag128
ag128
ag128
ag128
ag128
ag128
ag128
ag128
ag128
ag128
ag128
ag128
ag128
ag128
ag128
asS'episodes_log'
p129
(lp130
I1734
aI2039
aI2356
aI2652
aI2978
aI3308
aI3638
aI3930
aI4266
aI4564
aI4871
aI5186
aI5505
aI5838
aI6204
aI6527
aI6867
aI7224
aI7556
aI7902
aI8266
aI8629
aI9010
aI9379
aI9775
aI10148
aI10504
aI10879
aI11286
aI11653
aI12068
aI12472
aI12873
aI13226
aI13605
asS'same'
p131
(lp132
I0
aI88
aI191
aI304
aI446
aI591
aI740
aI929
aI1164
aI1453
aI1741
aI2017
aI2338
aI2673
aI3042
aI3453
aI3825
aI4161
aI4550
aI4921
aI5378
aI5861
aI6332
aI6827
aI7412
aI7953
aI8520
aI9112
aI9699
aI10336
aI10968
aI11626
aI12298
aI13058
aI13821
aI14604
asS'learning_rate_log'
p133
(lp134
F0.0001
aF0.0001
aF0.0001
aF0.0001
aF0.0001
aF0.0001
aF0.0001
aF0.0001
aF0.0001
aF0.0001
aF0.0001
aF0.0001
aF0.0001
aF0.0001
aF0.0001
aF0.0001
aF0.0001
aF0.0001
aF0.0001
aF0.0001
aF0.0001
aF0.0001
aF0.0001
aF0.0001
aF0.0001
aF0.0001
aF0.0001
aF0.0001
aF0.0001
aF0.0001
aF0.0001
aF0.0001
aF0.0001
aF0.0001
aF0.0001
as.