(dp0
S't_log'
p1
(lp2
I60000
aI70000
aI80000
aI90000
aI100000
aI110000
aI120000
aI130000
aI140000
aI150000
aI160000
aI170000
aI180000
aI190000
aI200000
aI210000
aI220000
aI230000
aI240000
aI250000
aI260000
aI270000
aI280000
aI290000
aI300000
aI310000
aI320000
aI330000
aI340000
aI350000
aI360000
aI370000
aI380000
aI390000
aI400000
aI410000
aI420000
aI430000
aI440000
aI450000
aI460000
aI470000
aI480000
aI490000
aI500000
aI510000
aI520000
aI530000
aI540000
aI550000
aI560000
aI570000
aI580000
aI590000
aI600000
asS'mean_reward_log'
p3
(lp4
cnumpy.core.multiarray
scalar
p5
(cnumpy
dtype
p6
(S'f8'
p7
I0
I1
tp8
Rp9
(I3
S'<'
p10
NNNI-1
I-1
I0
tp11
bS'333333\xd3?'
p12
tp13
Rp14
ag5
(g9
S'\x85\xebQ\xb8\x1e\x85\xdb?'
p15
tp16
Rp17
ag5
(g9
S'\n\xd7\xa3p=\n\xc7?'
p18
tp19
Rp20
ag5
(g9
S'H\xe1z\x14\xaeG\xd1?'
p21
tp22
Rp23
ag5
(g9
S'H\xe1z\x14\xaeG\xd1?'
p24
tp25
Rp26
ag5
(g9
S'\xb8\x1e\x85\xebQ\xb8\xce?'
p27
tp28
Rp29
ag5
(g9
S'\xe1z\x14\xaeG\xe1\xca?'
p30
tp31
Rp32
ag5
(g9
S'\xe1z\x14\xaeG\xe1\xca?'
p33
tp34
Rp35
ag5
(g9
S'R\xb8\x1e\x85\xebQ\xc8?'
p36
tp37
Rp38
ag5
(g9
S'\xa4p=\n\xd7\xa3\xd0?'
p39
tp40
Rp41
ag5
(g9
S'\xe1z\x14\xaeG\xe1\xca?'
p42
tp43
Rp44
ag5
(g9
S'\x00\x00\x00\x00\x00\x00\xd0?'
p45
tp46
Rp47
ag5
(g9
S'\xc3\xf5(\\\x8f\xc2\xc5?'
p48
tp49
Rp50
ag5
(g9
S')\\\x8f\xc2\xf5(\xcc?'
p51
tp52
Rp53
ag5
(g9
S'R\xb8\x1e\x85\xebQ\xc8?'
p54
tp55
Rp56
ag5
(g9
S'{\x14\xaeG\xe1z\xd4?'
p57
tp58
Rp59
ag5
(g9
S'\xecQ\xb8\x1e\x85\xeb\xd1?'
p60
tp61
Rp62
ag5
(g9
S'\xa4p=\n\xd7\xa3\xd0?'
p63
tp64
Rp65
ag5
(g9
S'H\xe1z\x14\xaeG\xd1?'
p66
tp67
Rp68
ag5
(g9
S'R\xb8\x1e\x85\xebQ\xc8?'
p69
tp70
Rp71
ag5
(g9
S'R\xb8\x1e\x85\xebQ\xc8?'
p72
tp73
Rp74
ag5
(g9
S'R\xb8\x1e\x85\xebQ\xc8?'
p75
tp76
Rp77
ag5
(g9
S'\xc3\xf5(\\\x8f\xc2\xc5?'
p78
tp79
Rp80
ag5
(g9
S'\xa4p=\n\xd7\xa3\xd0?'
p81
tp82
Rp83
ag5
(g9
S'\xc3\xf5(\\\x8f\xc2\xc5?'
p84
tp85
Rp86
ag5
(g9
S'333333\xc3?'
p87
tp88
Rp89
ag5
(g9
S'\xa4p=\n\xd7\xa3\xc0?'
p90
tp91
Rp92
ag5
(g9
S'\xecQ\xb8\x1e\x85\xeb\xc1?'
p93
tp94
Rp95
ag5
(g9
S'\xe1z\x14\xaeG\xe1\xca?'
p96
tp97
Rp98
ag5
(g9
S'333333\xc3?'
p99
tp100
Rp101
ag5
(g9
S'\x8f\xc2\xf5(\\\x8f\xd2?'
p102
tp103
Rp104
ag5
(g9
S'{\x14\xaeG\xe1z\xc4?'
p105
tp106
Rp107
ag5
(g9
S'R\xb8\x1e\x85\xebQ\xc8?'
p108
tp109
Rp110
ag5
(g9
S')\\\x8f\xc2\xf5(\xcc?'
p111
tp112
Rp113
ag5
(g9
S'\x9a\x99\x99\x99\x99\x99\xc9?'
p114
tp115
Rp116
ag5
(g9
S'\n\xd7\xa3p=\n\xc7?'
p117
tp118
Rp119
ag5
(g9
S'\n\xd7\xa3p=\n\xc7?'
p120
tp121
Rp122
ag5
(g9
S'\n\xd7\xa3p=\n\xc7?'
p123
tp124
Rp125
ag5
(g9
S'\xb8\x1e\x85\xebQ\xb8\xbe?'
p126
tp127
Rp128
ag5
(g9
S'\x9a\x99\x99\x99\x99\x99\xc9?'
p129
tp130
Rp131
ag5
(g9
S'\x9a\x99\x99\x99\x99\x99\xc9?'
p132
tp133
Rp134
ag5
(g9
S'\xe1z\x14\xaeG\xe1\xca?'
p135
tp136
Rp137
ag5
(g9
S'{\x14\xaeG\xe1z\xc4?'
p138
tp139
Rp140
ag5
(g9
S')\\\x8f\xc2\xf5(\xbc?'
p141
tp142
Rp143
ag5
(g9
S'\xecQ\xb8\x1e\x85\xeb\xc1?'
p144
tp145
Rp146
ag5
(g9
S'\n\xd7\xa3p=\n\xc7?'
p147
tp148
Rp149
ag5
(g9
S'\xb8\x1e\x85\xebQ\xb8\xbe?'
p150
tp151
Rp152
ag5
(g9
S'\xc3\xf5(\\\x8f\xc2\xc5?'
p153
tp154
Rp155
ag5
(g9
S'\xb8\x1e\x85\xebQ\xb8\xbe?'
p156
tp157
Rp158
ag5
(g9
S'\xc3\xf5(\\\x8f\xc2\xc5?'
p159
tp160
Rp161
ag5
(g9
S'333333\xc3?'
p162
tp163
Rp164
ag5
(g9
S'333333\xc3?'
p165
tp166
Rp167
ag5
(g9
S'\xb8\x1e\x85\xebQ\xb8\xbe?'
p168
tp169
Rp170
ag5
(g9
S'\x9a\x99\x99\x99\x99\x99\xb9?'
p171
tp172
Rp173
ag5
(g9
S'\xa4p=\n\xd7\xa3\xc0?'
p174
tp175
Rp176
asS'diff'
p177
(lp178
I0
aI408
aI905
aI1455
aI2109
aI2788
aI3547
aI4380
aI5255
aI6160
aI7109
aI8133
aI9289
aI10512
aI11763
aI13176
aI14589
aI16145
aI17728
aI19378
aI21078
aI22892
aI24758
aI26687
aI28767
aI30831
aI32990
aI35287
aI37590
aI39988
aI42426
aI44959
aI47543
aI50265
aI52988
aI55768
aI58597
aI61489
aI64437
aI67400
aI70437
aI73488
aI76686
aI79926
aI83168
aI86526
aI89931
aI93374
aI96891
aI100509
aI104209
aI107938
aI111799
aI115525
aI119517
aI123517
asS'exploration_log'
p179
(lp180
F0.946
aF0.9369999999999999
aF0.9279999999999999
aF0.919
aF0.91
aF0.901
aF0.892
aF0.883
aF0.874
aF0.865
aF0.856
aF0.847
aF0.838
aF0.829
aF0.82
aF0.8109999999999999
aF0.802
aF0.7929999999999999
aF0.784
aF0.775
aF0.766
aF0.757
aF0.748
aF0.739
aF0.73
aF0.721
aF0.712
aF0.703
aF0.694
aF0.685
aF0.6759999999999999
aF0.667
aF0.6579999999999999
aF0.649
aF0.6399999999999999
aF0.631
aF0.622
aF0.613
aF0.604
aF0.595
aF0.586
aF0.577
aF0.5680000000000001
aF0.5589999999999999
aF0.55
aF0.5409999999999999
aF0.532
aF0.5229999999999999
aF0.514
aF0.5049999999999999
aF0.4959999999999999
aF0.487
aF0.478
aF0.469
aF0.45999999999999996
asS'best_mean_log'
p181
(lp182
g5
(g9
S'q=\n\xd7\xa3p\xdd?'
p183
tp184
Rp185
ag5
(g9
S'R\xb8\x1e\x85\xebQ\xe0?'
p186
tp187
Rp188
ag188
ag188
ag188
ag188
ag188
ag188
ag188
ag188
ag188
ag188
ag188
ag188
ag188
ag188
ag188
ag188
ag188
ag188
ag188
ag188
ag188
ag188
ag188
ag188
ag188
ag188
ag188
ag188
ag188
ag188
ag188
ag188
ag188
ag188
ag188
ag188
ag188
ag188
ag188
ag188
ag188
ag188
ag188
ag188
ag188
ag188
ag188
ag188
ag188
ag188
ag188
ag188
ag188
asS'episodes_log'
p189
(lp190
I1741
aI2001
aI2305
aI2611
aI2918
aI3238
aI3561
aI3885
aI4233
aI4551
aI4882
aI5224
aI5533
aI5886
aI6250
aI6564
aI6891
aI7223
aI7588
aI7948
aI8309
aI8674
aI9020
aI9364
aI9760
aI10112
aI10499
aI10875
aI11279
aI11645
aI12013
aI12413
aI12823
aI13193
aI13569
aI13952
aI14364
aI14762
aI15144
aI15578
aI16013
aI16442
aI16869
aI17319
aI17771
aI18209
aI18669
aI19150
aI19612
aI20102
aI20590
aI21087
aI21599
aI22082
aI22605
asS'same'
p191
(lp192
I0
aI74
aI160
aI272
aI411
aI558
aI723
aI953
aI1192
aI1471
aI1775
aI2083
aI2445
aI2793
aI3192
aI3600
aI4031
aI4416
aI4809
aI5270
aI5730
aI6257
aI6753
aI7305
aI7849
aI8401
aI8959
aI9546
aI10120
aI10709
aI11322
aI11972
aI12686
aI13396
aI14176
aI14959
aI15794
aI16613
aI17514
aI18425
aI19366
aI20417
aI21447
aI22581
aI23684
aI24820
aI25951
aI27077
aI28266
aI29521
aI30732
aI32040
aI33313
aI34617
aI35955
aI37280
asS'learning_rate_log'
p193
(lp194
F0.0001
aF0.0001
aF0.0001
aF0.0001
aF0.0001
aF0.0001
aF0.0001
aF0.0001
aF0.0001
aF0.0001
aF0.0001
aF0.0001
aF0.0001
aF0.0001
aF0.0001
aF0.0001
aF0.0001
aF0.0001
aF0.0001
aF0.0001
aF0.0001
aF0.0001
aF0.0001
aF0.0001
aF0.0001
aF0.0001
aF0.0001
aF0.0001
aF0.0001
aF0.0001
aF0.0001
aF0.0001
aF0.0001
aF0.0001
aF0.0001
aF0.0001
aF0.0001
aF0.0001
aF0.0001
aF0.0001
aF0.0001
aF0.0001
aF0.0001
aF0.0001
aF0.0001
aF0.0001
aF0.0001
aF0.0001
aF0.0001
aF0.0001
aF0.0001
aF0.0001
aF0.0001
aF0.0001
aF0.0001
as.