(dp0
S't_log'
p1
(lp2
I60000
aI70000
aI80000
aI90000
aI100000
aI110000
aI120000
aI130000
aI140000
aI150000
aI160000
aI170000
aI180000
aI190000
aI200000
aI210000
aI220000
aI230000
aI240000
aI250000
aI260000
aI270000
aI280000
aI290000
aI300000
aI310000
aI320000
aI330000
aI340000
aI350000
aI360000
aI370000
aI380000
aI390000
aI400000
aI410000
aI420000
aI430000
aI440000
aI450000
aI460000
aI470000
aI480000
aI490000
aI500000
aI510000
aI520000
aI530000
aI540000
aI550000
aI560000
aI570000
aI580000
aI590000
aI600000
aI610000
aI620000
aI630000
aI640000
aI650000
aI660000
aI670000
aI680000
aI690000
aI700000
aI710000
aI720000
aI730000
aI740000
aI750000
aI760000
aI770000
aI780000
aI790000
aI800000
aI810000
aI820000
aI830000
aI840000
aI850000
aI860000
aI870000
aI880000
aI890000
aI900000
aI910000
aI920000
aI930000
aI940000
aI950000
aI960000
aI970000
aI980000
aI990000
aI1000000
aI1010000
aI1020000
aI1030000
aI1040000
aI1050000
aI1060000
aI1070000
aI1080000
aI1090000
aI1100000
aI1110000
aI1120000
aI1130000
aI1140000
aI1150000
aI1160000
aI1170000
aI1180000
aI1190000
aI1200000
aI1210000
aI1220000
aI1230000
aI1240000
aI1250000
aI1260000
aI1270000
aI1280000
aI1290000
aI1300000
aI1310000
aI1320000
aI1330000
aI1340000
aI1350000
aI1360000
aI1370000
aI1380000
aI1390000
aI1400000
aI1410000
aI1420000
aI1430000
aI1440000
aI1450000
aI1460000
aI1470000
aI1480000
aI1490000
aI1500000
aI1510000
aI1520000
aI1530000
aI1540000
aI1550000
aI1560000
aI1570000
aI1580000
aI1590000
aI1600000
aI1610000
aI1620000
aI1630000
aI1640000
aI1650000
aI1660000
aI1670000
aI1680000
aI1690000
aI1700000
aI1710000
aI1720000
aI1730000
aI1740000
aI1750000
aI1760000
aI1770000
aI1780000
aI1790000
aI1800000
aI1810000
aI1820000
aI1830000
aI1840000
aI1850000
aI1860000
aI1870000
aI1880000
aI1890000
aI1900000
aI1910000
aI1920000
aI1930000
aI1940000
aI1950000
aI1960000
aI1970000
aI1980000
aI1990000
aI2000000
asS'mean_reward_log'
p3
(lp4
cnumpy.core.multiarray
scalar
p5
(cnumpy
dtype
p6
(S'f8'
p7
I0
I1
tp8
Rp9
(I3
S'<'
p10
NNNI-1
I-1
I0
tp11
bS'\x9a\x99\x99\x99\x99\x99\xc9?'
p12
tp13
Rp14
ag5
(g9
S'\xd7\xa3p=\n\xd7\xd3?'
p15
tp16
Rp17
ag5
(g9
S'{\x14\xaeG\xe1z\xd4?'
p18
tp19
Rp20
ag5
(g9
S'333333\xd3?'
p21
tp22
Rp23
ag5
(g9
S'\xc3\xf5(\\\x8f\xc2\xd5?'
p24
tp25
Rp26
ag5
(g9
S'H\xe1z\x14\xaeG\xd1?'
p27
tp28
Rp29
ag5
(g9
S'q=\n\xd7\xa3p\xcd?'
p30
tp31
Rp32
ag5
(g9
S'{\x14\xaeG\xe1z\xd4?'
p33
tp34
Rp35
ag5
(g9
S'\xcd\xcc\xcc\xcc\xcc\xcc\xdc?'
p36
tp37
Rp38
ag5
(g9
S'{\x14\xaeG\xe1z\xd4?'
p39
tp40
Rp41
ag5
(g9
S'\xecQ\xb8\x1e\x85\xeb\xd1?'
p42
tp43
Rp44
ag5
(g9
S'\xd7\xa3p=\n\xd7\xd3?'
p45
tp46
Rp47
ag5
(g9
S'\xd7\xa3p=\n\xd7\xd3?'
p48
tp49
Rp50
ag5
(g9
S'H\xe1z\x14\xaeG\xd1?'
p51
tp52
Rp53
ag5
(g9
S'\xa4p=\n\xd7\xa3\xd0?'
p54
tp55
Rp56
ag5
(g9
S'ffffff\xd6?'
p57
tp58
Rp59
ag5
(g9
S'{\x14\xaeG\xe1z\xd4?'
p60
tp61
Rp62
ag5
(g9
S'\xb8\x1e\x85\xebQ\xb8\xce?'
p63
tp64
Rp65
ag5
(g9
S'\xc3\xf5(\\\x8f\xc2\xd5?'
p66
tp67
Rp68
ag5
(g9
S'{\x14\xaeG\xe1z\xd4?'
p69
tp70
Rp71
ag5
(g9
S'{\x14\xaeG\xe1z\xd4?'
p72
tp73
Rp74
ag5
(g9
S'\xb8\x1e\x85\xebQ\xb8\xde?'
p75
tp76
Rp77
ag5
(g9
S')\\\x8f\xc2\xf5(\xdc?'
p78
tp79
Rp80
ag5
(g9
S'R\xb8\x1e\x85\xebQ\xe0?'
p81
tp82
Rp83
ag5
(g9
S'\xecQ\xb8\x1e\x85\xeb\xe1?'
p84
tp85
Rp86
ag5
(g9
S'\xecQ\xb8\x1e\x85\xeb\xe1?'
p87
tp88
Rp89
ag5
(g9
S'ffffff\xe6?'
p90
tp91
Rp92
ag5
(g9
S'\x8f\xc2\xf5(\\\x8f\xea?'
p93
tp94
Rp95
ag5
(g9
S'\xa4p=\n\xd7\xa3\xf0?'
p96
tp97
Rp98
ag5
(g9
S'\x85\xebQ\xb8\x1e\x85\xeb?'
p99
tp100
Rp101
ag5
(g9
S'\xf6(\\\x8f\xc2\xf5\xe8?'
p102
tp103
Rp104
ag5
(g9
S'\x8f\xc2\xf5(\\\x8f\xf2?'
p105
tp106
Rp107
ag5
(g9
S'R\xb8\x1e\x85\xebQ\xf0?'
p108
tp109
Rp110
ag5
(g9
S'H\xe1z\x14\xaeG\xf1?'
p111
tp112
Rp113
ag5
(g9
S'\xaeG\xe1z\x14\xae\xef?'
p114
tp115
Rp116
ag5
(g9
S'\xaeG\xe1z\x14\xae\xef?'
p117
tp118
Rp119
ag5
(g9
S'\xb8\x1e\x85\xebQ\xb8\xee?'
p120
tp121
Rp122
ag5
(g9
S')\\\x8f\xc2\xf5(\xf0?'
p123
tp124
Rp125
ag5
(g9
S'\xaeG\xe1z\x14\xae\xef?'
p126
tp127
Rp128
ag5
(g9
S'\n\xd7\xa3p=\n\xef?'
p129
tp130
Rp131
ag5
(g9
S'\x85\xebQ\xb8\x1e\x85\xf3?'
p132
tp133
Rp134
ag5
(g9
S'q=\n\xd7\xa3p\xed?'
p135
tp136
Rp137
ag5
(g9
S'\xd7\xa3p=\n\xd7\xf3?'
p138
tp139
Rp140
ag5
(g9
S'\x14\xaeG\xe1z\x14\xee?'
p141
tp142
Rp143
ag5
(g9
S'\xb8\x1e\x85\xebQ\xb8\xf2?'
p144
tp145
Rp146
ag5
(g9
S'\xf6(\\\x8f\xc2\xf5\xe8?'
p147
tp148
Rp149
ag5
(g9
S'\x9a\x99\x99\x99\x99\x99\xe9?'
p150
tp151
Rp152
ag5
(g9
S'\xa4p=\n\xd7\xa3\xf0?'
p153
tp154
Rp155
ag5
(g9
S'\xa4p=\n\xd7\xa3\xe8?'
p156
tp157
Rp158
ag5
(g9
S'\x14\xaeG\xe1z\x14\xf2?'
p159
tp160
Rp161
ag5
(g9
S'\x8f\xc2\xf5(\\\x8f\xf2?'
p162
tp163
Rp164
ag5
(g9
S'{\x14\xaeG\xe1z\xf4?'
p165
tp166
Rp167
ag5
(g9
S'\xecQ\xb8\x1e\x85\xeb\xf1?'
p168
tp169
Rp170
ag5
(g9
S'\xe1z\x14\xaeG\xe1\xf6?'
p171
tp172
Rp173
ag5
(g9
S')\\\x8f\xc2\xf5(\xf4?'
p174
tp175
Rp176
ag5
(g9
S'H\xe1z\x14\xaeG\xf5?'
p177
tp178
Rp179
ag5
(g9
S'q=\n\xd7\xa3p\xf5?'
p180
tp181
Rp182
ag5
(g9
S'R\xb8\x1e\x85\xebQ\xf8?'
p183
tp184
Rp185
ag5
(g9
S'\\\x8f\xc2\xf5(\\\xf7?'
p186
tp187
Rp188
ag5
(g9
S'\xaeG\xe1z\x14\xae\xfb?'
p189
tp190
Rp191
ag5
(g9
S'\x14\xaeG\xe1z\x14\xfa?'
p192
tp193
Rp194
ag5
(g9
S'\xf6(\\\x8f\xc2\xf5\xf8?'
p195
tp196
Rp197
ag5
(g9
S'\xb8\x1e\x85\xebQ\xb8\xfe?'
p198
tp199
Rp200
ag5
(g9
S'\xc3\xf5(\\\x8f\xc2\xfd?'
p201
tp202
Rp203
ag5
(g9
S'q=\n\xd7\xa3p\xfd?'
p204
tp205
Rp206
ag5
(g9
S'\x8f\xc2\xf5(\\\x8f\x00@'
p207
tp208
Rp209
ag5
(g9
S')\\\x8f\xc2\xf5(\x00@'
p210
tp211
Rp212
ag5
(g9
S'\xecQ\xb8\x1e\x85\xeb\x01@'
p213
tp214
Rp215
ag5
(g9
S'333333\x03@'
p216
tp217
Rp218
ag5
(g9
S'\xcd\xcc\xcc\xcc\xcc\xcc\x04@'
p219
tp220
Rp221
ag5
(g9
S'\x14\xaeG\xe1z\x14\x04@'
p222
tp223
Rp224
ag5
(g9
S'ffffff\n@'
p225
tp226
Rp227
ag5
(g9
S'\xaeG\xe1z\x14\xae\x05@'
p228
tp229
Rp230
ag5
(g9
S'333333\x05@'
p231
tp232
Rp233
ag5
(g9
S'\xaeG\xe1z\x14\xae\t@'
p234
tp235
Rp236
ag5
(g9
S'\xe1z\x14\xaeG\xe1\x08@'
p237
tp238
Rp239
ag5
(g9
S'\xecQ\xb8\x1e\x85\xeb\t@'
p240
tp241
Rp242
ag5
(g9
S'\xaeG\xe1z\x14\xae\t@'
p243
tp244
Rp245
ag5
(g9
S'q=\n\xd7\xa3p\x0b@'
p246
tp247
Rp248
ag5
(g9
S'\x85\xebQ\xb8\x1e\x85\r@'
p249
tp250
Rp251
ag5
(g9
S'R\xb8\x1e\x85\xebQ\x0e@'
p252
tp253
Rp254
ag5
(g9
S'\xecQ\xb8\x1e\x85\xeb\x0b@'
p255
tp256
Rp257
ag5
(g9
S'\xaeG\xe1z\x14\xae\r@'
p258
tp259
Rp260
ag5
(g9
S'\x85\xebQ\xb8\x1e\x85\x0f@'
p261
tp262
Rp263
ag5
(g9
S'\xc3\xf5(\\\x8f\xc2\x10@'
p264
tp265
Rp266
ag5
(g9
S'\xe1z\x14\xaeG\xe1\x12@'
p267
tp268
Rp269
ag5
(g9
S'\xecQ\xb8\x1e\x85\xeb\x13@'
p270
tp271
Rp272
ag5
(g9
S'\\\x8f\xc2\xf5(\\\x16@'
p273
tp274
Rp275
ag5
(g9
S'\x9a\x99\x99\x99\x99\x99\x14@'
p276
tp277
Rp278
ag5
(g9
S'R\xb8\x1e\x85\xebQ\x12@'
p279
tp280
Rp281
ag5
(g9
S'\n\xd7\xa3p=\n\x13@'
p282
tp283
Rp284
ag5
(g9
S'q=\n\xd7\xa3p\x14@'
p285
tp286
Rp287
ag5
(g9
S'\xcd\xcc\xcc\xcc\xcc\xcc\x14@'
p288
tp289
Rp290
ag5
(g9
S'R\xb8\x1e\x85\xebQ\x16@'
p291
tp292
Rp293
ag5
(g9
S'ffffff\x16@'
p294
tp295
Rp296
ag5
(g9
S'333333\x17@'
p297
tp298
Rp299
ag5
(g9
S'\xf6(\\\x8f\xc2\xf5\x16@'
p300
tp301
Rp302
ag5
(g9
S'R\xb8\x1e\x85\xebQ\x16@'
p303
tp304
Rp305
ag5
(g9
S'ffffff\x15@'
p306
tp307
Rp308
ag5
(g9
S'\xb8\x1e\x85\xebQ\xb8\x15@'
p309
tp310
Rp311
ag5
(g9
S'\x8f\xc2\xf5(\\\x8f\x16@'
p312
tp313
Rp314
ag5
(g9
S'R\xb8\x1e\x85\xebQ\x16@'
p315
tp316
Rp317
ag5
(g9
S'\x1f\x85\xebQ\xb8\x1e\x17@'
p318
tp319
Rp320
ag5
(g9
S'\x8f\xc2\xf5(\\\x8f\x18@'
p321
tp322
Rp323
ag5
(g9
S'\x00\x00\x00\x00\x00\x00\x18@'
p324
tp325
Rp326
ag5
(g9
S'\x00\x00\x00\x00\x00\x00\x18@'
p327
tp328
Rp329
ag5
(g9
S'\xe1z\x14\xaeG\xe1\x17@'
p330
tp331
Rp332
ag5
(g9
S'\x14\xaeG\xe1z\x14\x18@'
p333
tp334
Rp335
ag5
(g9
S'\xf6(\\\x8f\xc2\xf5\x18@'
p336
tp337
Rp338
ag5
(g9
S'=\n\xd7\xa3p=\x19@'
p339
tp340
Rp341
ag5
(g9
S'\xd7\xa3p=\n\xd7\x17@'
p342
tp343
Rp344
ag5
(g9
S'=\n\xd7\xa3p=\x1a@'
p345
tp346
Rp347
ag5
(g9
S')\\\x8f\xc2\xf5(\x1a@'
p348
tp349
Rp350
ag5
(g9
S'\xa4p=\n\xd7\xa3\x19@'
p351
tp352
Rp353
ag5
(g9
S'\xc3\xf5(\\\x8f\xc2\x19@'
p354
tp355
Rp356
ag5
(g9
S'\xd7\xa3p=\n\xd7\x1c@'
p357
tp358
Rp359
ag5
(g9
S'\x1f\x85\xebQ\xb8\x1e\x1c@'
p360
tp361
Rp362
ag5
(g9
S'\xc3\xf5(\\\x8f\xc2\x1a@'
p363
tp364
Rp365
ag5
(g9
S'\x85\xebQ\xb8\x1e\x85\x1b@'
p366
tp367
Rp368
ag5
(g9
S'\x14\xaeG\xe1z\x14\x1a@'
p369
tp370
Rp371
ag5
(g9
S'\n\xd7\xa3p=\n\x1b@'
p372
tp373
Rp374
ag5
(g9
S'\x9a\x99\x99\x99\x99\x99\x1c@'
p375
tp376
Rp377
ag5
(g9
S'{\x14\xaeG\xe1z\x1c@'
p378
tp379
Rp380
ag5
(g9
S'\x14\xaeG\xe1z\x14\x1c@'
p381
tp382
Rp383
ag5
(g9
S'=\n\xd7\xa3p=\x1b@'
p384
tp385
Rp386
ag5
(g9
S'\n\xd7\xa3p=\n\x1d@'
p387
tp388
Rp389
ag5
(g9
S'\n\xd7\xa3p=\n\x1b@'
p390
tp391
Rp392
ag5
(g9
S'=\n\xd7\xa3p=\x1b@'
p393
tp394
Rp395
ag5
(g9
S'\x8f\xc2\xf5(\\\x8f\x1b@'
p396
tp397
Rp398
ag5
(g9
S'\x85\xebQ\xb8\x1e\x85\x1c@'
p399
tp400
Rp401
ag5
(g9
S'\\\x8f\xc2\xf5(\\\x1d@'
p402
tp403
Rp404
ag5
(g9
S'\x8f\xc2\xf5(\\\x8f\x1e@'
p405
tp406
Rp407
ag5
(g9
S'\x00\x00\x00\x00\x00\x00\x1c@'
p408
tp409
Rp410
ag5
(g9
S'\xd7\xa3p=\n\xd7\x1c@'
p411
tp412
Rp413
ag5
(g9
S'333333\x1e@'
p414
tp415
Rp416
ag5
(g9
S'\xb8\x1e\x85\xebQ\xb8\x1f@'
p417
tp418
Rp419
ag5
(g9
S'\x00\x00\x00\x00\x00\x00\x1e@'
p420
tp421
Rp422
ag5
(g9
S'333333\x1e@'
p423
tp424
Rp425
ag5
(g9
S'\x00\x00\x00\x00\x00\x00\x1d@'
p426
tp427
Rp428
ag5
(g9
S'ffffff\x1d@'
p429
tp430
Rp431
ag5
(g9
S'\\\x8f\xc2\xf5(\\\x1b@'
p432
tp433
Rp434
ag5
(g9
S')\\\x8f\xc2\xf5(\x1c@'
p435
tp436
Rp437
ag5
(g9
S'\xc3\xf5(\\\x8f\xc2\x1c@'
p438
tp439
Rp440
ag5
(g9
S'ffffff\x1c@'
p441
tp442
Rp443
ag5
(g9
S'=\n\xd7\xa3p=\x1f@'
p444
tp445
Rp446
ag5
(g9
S'\x14\xaeG\xe1z\x14\x1d@'
p447
tp448
Rp449
ag5
(g9
S'H\xe1z\x14\xaeG\x1e@'
p450
tp451
Rp452
ag5
(g9
S'R\xb8\x1e\x85\xebQ\x1d@'
p453
tp454
Rp455
ag5
(g9
S'\xa4p=\n\xd7\xa3 @'
p456
tp457
Rp458
ag5
(g9
S'\xaeG\xe1z\x14. @'
p459
tp460
Rp461
ag5
(g9
S'q=\n\xd7\xa3p\x1f@'
p462
tp463
Rp464
ag5
(g9
S'\xecQ\xb8\x1e\x85\xeb\x1d@'
p465
tp466
Rp467
ag5
(g9
S'\n\xd7\xa3p=\n\x1d@'
p468
tp469
Rp470
ag5
(g9
S'q=\n\xd7\xa3p\x1d@'
p471
tp472
Rp473
ag5
(g9
S'\x00\x00\x00\x00\x00\x00 @'
p474
tp475
Rp476
ag5
(g9
S'\x8f\xc2\xf5(\\\x8f\x1e@'
p477
tp478
Rp479
ag5
(g9
S'\x00\x00\x00\x00\x00\x00\x1e@'
p480
tp481
Rp482
ag5
(g9
S'\x9a\x99\x99\x99\x99\x99\x1d@'
p483
tp484
Rp485
ag5
(g9
S'\xaeG\xe1z\x14\xae\x1f@'
p486
tp487
Rp488
ag5
(g9
S'\xf6(\\\x8f\xc2u @'
p489
tp490
Rp491
ag5
(g9
S'33333\xb3!@'
p492
tp493
Rp494
ag5
(g9
S'\xa4p=\n\xd7#!@'
p495
tp496
Rp497
ag5
(g9
S'=\n\xd7\xa3p=!@'
p498
tp499
Rp500
ag5
(g9
S'\x00\x00\x00\x00\x00\x00!@'
p501
tp502
Rp503
ag5
(g9
S'\x00\x00\x00\x00\x00\x00!@'
p504
tp505
Rp506
ag5
(g9
S'\x1f\x85\xebQ\xb8\x9e!@'
p507
tp508
Rp509
ag5
(g9
S'\n\xd7\xa3p=\x8a!@'
p510
tp511
Rp512
ag5
(g9
S'\x85\xebQ\xb8\x1e\x85\x1f@'
p513
tp514
Rp515
ag5
(g9
S'\\\x8f\xc2\xf5(\\!@'
p516
tp517
Rp518
ag5
(g9
S'q=\n\xd7\xa3\xf0!@'
p519
tp520
Rp521
ag5
(g9
S'\\\x8f\xc2\xf5(\\"@'
p522
tp523
Rp524
ag5
(g9
S'\xe1z\x14\xaeGa!@'
p525
tp526
Rp527
ag5
(g9
S'\x9a\x99\x99\x99\x99\x19!@'
p528
tp529
Rp530
ag5
(g9
S'33333\xb3 @'
p531
tp532
Rp533
ag5
(g9
S'\xaeG\xe1z\x14. @'
p534
tp535
Rp536
ag5
(g9
S'\x00\x00\x00\x00\x00\x80 @'
p537
tp538
Rp539
ag5
(g9
S'\xd7\xa3p=\nW!@'
p540
tp541
Rp542
ag5
(g9
S'333333!@'
p543
tp544
Rp545
ag5
(g9
S'\n\xd7\xa3p=\n!@'
p546
tp547
Rp548
ag5
(g9
S'H\xe1z\x14\xaeG!@'
p549
tp550
Rp551
ag5
(g9
S'\x8f\xc2\xf5(\\\x8f @'
p552
tp553
Rp554
ag5
(g9
S'\xecQ\xb8\x1e\x85\xeb @'
p555
tp556
Rp557
ag5
(g9
S'\xc3\xf5(\\\x8fB"@'
p558
tp559
Rp560
ag5
(g9
S')\\\x8f\xc2\xf5(!@'
p561
tp562
Rp563
ag5
(g9
S'\x00\x00\x00\x00\x00\x00"@'
p564
tp565
Rp566
ag5
(g9
S'\xaeG\xe1z\x14.!@'
p567
tp568
Rp569
ag5
(g9
S'\xcd\xcc\xcc\xcc\xccL!@'
p570
tp571
Rp572
ag5
(g9
S'\x1f\x85\xebQ\xb8\x9e!@'
p573
tp574
Rp575
ag5
(g9
S'\x1f\x85\xebQ\xb8\x9e"@'
p576
tp577
Rp578
ag5
(g9
S')\\\x8f\xc2\xf5(#@'
p579
tp580
Rp581
ag5
(g9
S'H\xe1z\x14\xaeG"@'
p582
tp583
Rp584
ag5
(g9
S'\xaeG\xe1z\x14.$@'
p585
tp586
Rp587
ag5
(g9
S'\xa4p=\n\xd7\xa3$@'
p588
tp589
Rp590
ag5
(g9
S'\xe1z\x14\xaeGa#@'
p591
tp592
Rp593
ag5
(g9
S'\xd7\xa3p=\nW!@'
p594
tp595
Rp596
asS'learning_rate_log'
p597
(lp598
F0.0001
aF0.0001
aF0.0001
aF0.0001
aF0.0001
aF0.0001
aF0.0001
aF0.0001
aF0.0001
aF0.0001
aF0.0001
aF0.0001
aF0.0001
aF0.0001
aF0.0001
aF0.0001
aF0.0001
aF0.0001
aF0.0001
aF0.0001
aF0.0001
aF0.0001
aF0.0001
aF0.0001
aF0.0001
aF0.0001
aF0.0001
aF0.0001
aF0.0001
aF0.0001
aF0.0001
aF0.0001
aF0.0001
aF0.0001
aF0.0001
aF0.0001
aF0.0001
aF0.0001
aF0.0001
aF0.0001
aF0.0001
aF0.0001
aF0.0001
aF0.0001
aF0.0001
aF0.0001
aF0.0001
aF0.0001
aF0.0001
aF0.0001
aF0.0001
aF0.0001
aF0.0001
aF0.0001
aF0.0001
aF0.0001
aF0.0001
aF0.0001
aF0.0001
aF0.0001
aF0.0001
aF0.0001
aF0.0001
aF0.0001
aF0.0001
aF0.0001
aF0.0001
aF0.0001
aF0.0001
aF0.0001
aF0.0001
aF0.0001
aF0.0001
aF0.0001
aF0.0001
aF0.0001
aF0.0001
aF0.0001
aF0.0001
aF0.0001
aF0.0001
aF0.0001
aF0.0001
aF0.0001
aF0.0001
aF0.0001
aF0.0001
aF0.0001
aF0.0001
aF0.0001
aF0.0001
aF0.0001
aF0.0001
aF0.0001
aF0.0001
aF9.9875e-05
aF9.975e-05
aF9.962500000000001e-05
aF9.95e-05
aF9.9375e-05
aF9.925e-05
aF9.912500000000001e-05
aF9.900000000000001e-05
aF9.8875e-05
aF9.875e-05
aF9.8625e-05
aF9.850000000000001e-05
aF9.8375e-05
aF9.825e-05
aF9.8125e-05
aF9.800000000000001e-05
aF9.787500000000001e-05
aF9.775e-05
aF9.7625e-05
aF9.75e-05
aF9.737500000000001e-05
aF9.725e-05
aF9.7125e-05
aF9.7e-05
aF9.687500000000001e-05
aF9.675000000000001e-05
aF9.6625e-05
aF9.65e-05
aF9.6375e-05
aF9.625000000000001e-05
aF9.6125e-05
aF9.6e-05
aF9.5875e-05
aF9.575000000000001e-05
aF9.562500000000001e-05
aF9.55e-05
aF9.5375e-05
aF9.525000000000001e-05
aF9.512500000000001e-05
aF9.5e-05
aF9.4875e-05
aF9.475e-05
aF9.462500000000001e-05
aF9.45e-05
aF9.4375e-05
aF9.425e-05
aF9.412500000000001e-05
aF9.400000000000001e-05
aF9.3875e-05
aF9.375e-05
aF9.3625e-05
aF9.350000000000001e-05
aF9.3375e-05
aF9.325e-05
aF9.3125e-05
aF9.300000000000001e-05
aF9.287500000000001e-05
aF9.275e-05
aF9.2625e-05
aF9.25e-05
aF9.237500000000001e-05
aF9.225e-05
aF9.2125e-05
aF9.2e-05
aF9.1875e-05
aF9.175000000000001e-05
aF9.1625e-05
aF9.15e-05
aF9.137500000000001e-05
aF9.125000000000001e-05
aF9.1125e-05
aF9.1e-05
aF9.0875e-05
aF9.075000000000001e-05
aF9.062500000000001e-05
aF9.05e-05
aF9.0375e-05
aF9.025e-05
aF9.012500000000001e-05
aF9e-05
aF8.9875e-05
aF8.975e-05
aF8.962500000000001e-05
aF8.950000000000001e-05
aF8.9375e-05
aF8.925e-05
aF8.912500000000001e-05
aF8.900000000000001e-05
aF8.8875e-05
aF8.875e-05
aF8.8625e-05
aF8.850000000000001e-05
aF8.837500000000001e-05
aF8.825e-05
aF8.8125e-05
aF8.8e-05
aF8.787500000000001e-05
aF8.775e-05
aF8.7625e-05
aF8.75e-05
asS'exploration_log'
p599
(lp600
F0.946
aF0.9369999999999999
aF0.9279999999999999
aF0.919
aF0.91
aF0.901
aF0.892
aF0.883
aF0.874
aF0.865
aF0.856
aF0.847
aF0.838
aF0.829
aF0.82
aF0.8109999999999999
aF0.802
aF0.7929999999999999
aF0.784
aF0.775
aF0.766
aF0.757
aF0.748
aF0.739
aF0.73
aF0.721
aF0.712
aF0.703
aF0.694
aF0.685
aF0.6759999999999999
aF0.667
aF0.6579999999999999
aF0.649
aF0.6399999999999999
aF0.631
aF0.622
aF0.613
aF0.604
aF0.595
aF0.586
aF0.577
aF0.5680000000000001
aF0.5589999999999999
aF0.55
aF0.5409999999999999
aF0.532
aF0.5229999999999999
aF0.514
aF0.5049999999999999
aF0.4959999999999999
aF0.487
aF0.478
aF0.469
aF0.45999999999999996
aF0.45099999999999996
aF0.44199999999999995
aF0.43299999999999994
aF0.42399999999999993
aF0.4149999999999999
aF0.4059999999999999
aF0.3969999999999999
aF0.3879999999999999
aF0.379
aF0.37
aF0.361
aF0.352
aF0.34299999999999997
aF0.33399999999999996
aF0.32499999999999996
aF0.31599999999999995
aF0.30699999999999994
aF0.29799999999999993
aF0.2889999999999999
aF0.2799999999999999
aF0.2709999999999999
aF0.262
aF0.253
aF0.244
aF0.235
aF0.22599999999999998
aF0.21699999999999997
aF0.20799999999999996
aF0.19899999999999995
aF0.18999999999999995
aF0.18099999999999994
aF0.17199999999999993
aF0.16299999999999992
aF0.15400000000000003
aF0.14500000000000002
aF0.136
aF0.127
aF0.118
aF0.10899999999999999
aF0.1
aF0.099775
aF0.09955
aF0.09932500000000001
aF0.09910000000000001
aF0.098875
aF0.09865
aF0.098425
aF0.09820000000000001
aF0.097975
aF0.09775
aF0.097525
aF0.09730000000000001
aF0.09707500000000001
aF0.09685
aF0.096625
aF0.0964
aF0.09617500000000001
aF0.09595000000000001
aF0.095725
aF0.0955
aF0.095275
aF0.09505000000000001
aF0.094825
aF0.0946
aF0.094375
aF0.09415000000000001
aF0.09392500000000001
aF0.0937
aF0.093475
aF0.09325
aF0.09302500000000001
aF0.09280000000000001
aF0.092575
aF0.09235
aF0.09212500000000001
aF0.09190000000000001
aF0.091675
aF0.09145
aF0.091225
aF0.091
aF0.09077500000000001
aF0.09055
aF0.090325
aF0.0901
aF0.08987500000000001
aF0.08965000000000001
aF0.089425
aF0.0892
aF0.088975
aF0.08875000000000001
aF0.088525
aF0.0883
aF0.088075
aF0.08785
aF0.08762500000000001
aF0.0874
aF0.087175
aF0.08695
aF0.08672500000000001
aF0.08650000000000001
aF0.086275
aF0.08605
aF0.085825
aF0.08560000000000001
aF0.085375
aF0.08515
aF0.084925
aF0.0847
aF0.08447500000000001
aF0.08425
aF0.084025
aF0.0838
aF0.08357500000000001
aF0.08335000000000001
aF0.083125
aF0.0829
aF0.082675
aF0.08245
aF0.082225
aF0.082
aF0.081775
aF0.08155000000000001
aF0.08132500000000001
aF0.0811
aF0.080875
aF0.08065
aF0.080425
aF0.08020000000000001
aF0.079975
aF0.07975
aF0.079525
aF0.07930000000000001
aF0.079075
aF0.07885
aF0.078625
aF0.0784
aF0.07817500000000001
aF0.07795
aF0.077725
aF0.0775
asS'best_mean_log'
p601
(lp602
g5
(g9
S'q=\n\xd7\xa3p\xdd?'
p603
tp604
Rp605
ag605
ag605
ag605
ag605
ag605
ag605
ag5
(g9
S'\x00\x00\x00\x00\x00\x00\xe0?'
p606
tp607
Rp608
ag608
ag5
(g9
S'\x9a\x99\x99\x99\x99\x99\xe1?'
p609
tp610
Rp611
ag611
ag611
ag611
ag611
ag611
ag611
ag611
ag611
ag611
ag611
ag611
ag611
ag5
(g9
S'=\n\xd7\xa3p=\xe2?'
p612
tp613
Rp614
ag5
(g9
S'333333\xe3?'
p615
tp616
Rp617
ag5
(g9
S'\xd7\xa3p=\n\xd7\xe3?'
p618
tp619
Rp620
ag5
(g9
S'\x1f\x85\xebQ\xb8\x1e\xe5?'
p621
tp622
Rp623
ag5
(g9
S'\\\x8f\xc2\xf5(\\\xe7?'
p624
tp625
Rp626
ag5
(g9
S'\xe1z\x14\xaeG\xe1\xea?'
p627
tp628
Rp629
ag5
(g9
S'\x1f\x85\xebQ\xb8\x1e\xf1?'
p630
tp631
Rp632
ag632
ag632
ag5
(g9
S'\x8f\xc2\xf5(\\\x8f\xf2?'
p633
tp634
Rp635
ag5
(g9
S'\x85\xebQ\xb8\x1e\x85\xf3?'
p636
tp637
Rp638
ag638
ag638
ag638
ag638
ag638
ag638
ag638
ag5
(g9
S'\xd7\xa3p=\n\xd7\xf3?'
p639
tp640
Rp641
ag641
ag5
(g9
S'\xc3\xf5(\\\x8f\xc2\xf5?'
p642
tp643
Rp644
ag644
ag644
ag644
ag644
ag644
ag644
ag644
ag644
ag5
(g9
S'\xaeG\xe1z\x14\xae\xf7?'
p645
tp646
Rp647
ag647
ag647
ag647
ag647
ag647
ag5
(g9
S'\xcd\xcc\xcc\xcc\xcc\xcc\xf8?'
p648
tp649
Rp650
ag650
ag5
(g9
S'\xa4p=\n\xd7\xa3\xfc?'
p651
tp652
Rp653
ag5
(g9
S'=\n\xd7\xa3p=\xfe?'
p654
tp655
Rp656
ag656
ag5
(g9
S'\xb8\x1e\x85\xebQ\xb8\xfe?'
p657
tp658
Rp659
ag5
(g9
S'333333\xff?'
p660
tp661
Rp662
ag5
(g9
S'\x00\x00\x00\x00\x00\x00\x00@'
p663
tp664
Rp665
ag5
(g9
S'\xb8\x1e\x85\xebQ\xb8\x00@'
p666
tp667
Rp668
ag5
(g9
S')\\\x8f\xc2\xf5(\x02@'
p669
tp670
Rp671
ag671
ag5
(g9
S'\xaeG\xe1z\x14\xae\x03@'
p672
tp673
Rp674
ag5
(g9
S'=\n\xd7\xa3p=\x06@'
p675
tp676
Rp677
ag677
ag5
(g9
S'ffffff\n@'
p678
tp679
Rp680
ag5
(g9
S'\xa4p=\n\xd7\xa3\n@'
p681
tp682
Rp683
ag683
ag683
ag5
(g9
S'\x1f\x85\xebQ\xb8\x1e\x0b@'
p684
tp685
Rp686
ag686
ag686
ag5
(g9
S'\x14\xaeG\xe1z\x14\x0c@'
p687
tp688
Rp689
ag5
(g9
S'\x85\xebQ\xb8\x1e\x85\r@'
p690
tp691
Rp692
ag5
(g9
S'R\xb8\x1e\x85\xebQ\x10@'
p693
tp694
Rp695
ag695
ag695
ag5
(g9
S'\xecQ\xb8\x1e\x85\xeb\x10@'
p696
tp697
Rp698
ag698
ag5
(g9
S'\x1f\x85\xebQ\xb8\x1e\x13@'
p699
tp700
Rp701
ag5
(g9
S'=\n\xd7\xa3p=\x14@'
p702
tp703
Rp704
ag5
(g9
S'\\\x8f\xc2\xf5(\\\x16@'
p705
tp706
Rp707
ag5
(g9
S'\xa4p=\n\xd7\xa3\x16@'
p708
tp709
Rp710
ag710
ag710
ag710
ag710
ag710
ag710
ag5
(g9
S'\xa4p=\n\xd7\xa3\x17@'
p711
tp712
Rp713
ag713
ag713
ag713
ag713
ag713
ag713
ag713
ag5
(g9
S'\xecQ\xb8\x1e\x85\xeb\x18@'
p714
tp715
Rp716
ag5
(g9
S'R\xb8\x1e\x85\xebQ\x19@'
p717
tp718
Rp719
ag719
ag719
ag5
(g9
S'q=\n\xd7\xa3p\x19@'
p720
tp721
Rp722
ag722
ag5
(g9
S'\x9a\x99\x99\x99\x99\x99\x19@'
p723
tp724
Rp725
ag725
ag5
(g9
S'\xcd\xcc\xcc\xcc\xcc\xcc\x1a@'
p726
tp727
Rp728
ag5
(g9
S'\x9a\x99\x99\x99\x99\x99\x1b@'
p729
tp730
Rp731
ag731
ag731
ag5
(g9
S'\\\x8f\xc2\xf5(\\\x1d@'
p732
tp733
Rp734
ag734
ag5
(g9
S'\xe1z\x14\xaeG\xe1\x1d@'
p735
tp736
Rp737
ag737
ag737
ag737
ag737
ag5
(g9
S'\xd7\xa3p=\n\xd7\x1e@'
p738
tp739
Rp740
ag740
ag740
ag740
ag740
ag740
ag740
ag740
ag740
ag5
(g9
S'\xecQ\xb8\x1e\x85\xeb\x1e@'
p741
tp742
Rp743
ag743
ag743
ag743
ag5
(g9
S'\x9a\x99\x99\x99\x99\x19 @'
p744
tp745
Rp746
ag5
(g9
S'\x00\x00\x00\x00\x00\x80 @'
p747
tp748
Rp749
ag749
ag749
ag749
ag749
ag749
ag749
ag749
ag749
ag749
ag749
ag749
ag5
(g9
S'\x00\x00\x00\x00\x00\x00!@'
p750
tp751
Rp752
ag752
ag5
(g9
S'\xb8\x1e\x85\xebQ8!@'
p753
tp754
Rp755
ag755
ag755
ag755
ag755
ag755
ag755
ag755
ag755
ag755
ag5
(g9
S'33333\xb3!@'
p756
tp757
Rp758
ag5
(g9
S'R\xb8\x1e\x85\xeb\xd1!@'
p759
tp760
Rp761
ag5
(g9
S'\\\x8f\xc2\xf5(\xdc!@'
p762
tp763
Rp764
ag764
ag5
(g9
S'\x14\xaeG\xe1z\x14"@'
p765
tp766
Rp767
ag5
(g9
S'\xb8\x1e\x85\xebQ8"@'
p768
tp769
Rp770
ag770
ag770
ag770
ag770
ag5
(g9
S'\xa4p=\n\xd7##@'
p771
tp772
Rp773
ag773
ag773
ag773
ag773
ag773
ag773
ag773
ag773
ag773
ag773
ag773
ag773
ag773
ag773
ag773
ag773
ag773
ag773
ag5
(g9
S'\xd7\xa3p=\nW#@'
p774
tp775
Rp776
ag5
(g9
S'{\x14\xaeG\xe1z#@'
p777
tp778
Rp779
ag5
(g9
S'\xc3\xf5(\\\x8fB%@'
p780
tp781
Rp782
ag5
(g9
S'\xd7\xa3p=\n\xd7%@'
p783
tp784
Rp785
ag785
ag785
asS'episodes_log'
p786
(lp787
I1717
aI2000
aI2291
aI2554
aI2822
aI3112
aI3387
aI3654
aI3914
aI4193
aI4462
aI4747
aI5045
aI5338
aI5624
aI5907
aI6195
aI6487
aI6775
aI7052
aI7309
aI7558
aI7792
aI8024
aI8247
aI8472
aI8676
aI8860
aI9025
aI9207
aI9381
aI9531
aI9692
aI9855
aI10016
aI10176
aI10349
aI10509
aI10671
aI10833
aI10978
aI11147
aI11290
aI11462
aI11611
aI11792
aI11981
aI12144
aI12314
aI12455
aI12606
aI12739
aI12894
aI13027
aI13173
aI13309
aI13454
aI13586
aI13718
aI13834
aI13949
aI14069
aI14182
aI14294
aI14406
aI14509
aI14613
aI14709
aI14798
aI14885
aI14975
aI15047
aI15134
aI15218
aI15290
aI15365
aI15446
aI15516
aI15591
aI15656
aI15722
aI15792
aI15855
aI15919
aI15981
aI16033
aI16082
aI16128
aI16186
aI16244
aI16294
aI16346
aI16396
aI16441
aI16491
aI16538
aI16585
aI16636
aI16685
aI16733
aI16780
aI16830
aI16874
aI16919
aI16968
aI17012
aI17060
aI17103
aI17146
aI17192
aI17239
aI17282
aI17329
aI17371
aI17415
aI17455
aI17500
aI17540
aI17582
aI17625
aI17664
aI17704
aI17745
aI17787
aI17826
aI17866
aI17910
aI17951
aI17995
aI18036
aI18070
aI18109
aI18153
aI18190
aI18230
aI18266
aI18310
aI18348
aI18385
aI18426
aI18470
aI18511
aI18552
aI18591
aI18627
aI18670
aI18706
aI18751
aI18788
aI18825
aI18868
aI18912
aI18948
aI18985
aI19021
aI19065
aI19104
aI19145
aI19181
aI19219
aI19251
aI19289
aI19326
aI19361
aI19396
aI19430
aI19467
aI19512
aI19546
aI19582
aI19618
aI19656
aI19695
aI19731
aI19770
aI19809
aI19845
aI19880
aI19920
aI19956
aI19992
aI20030
aI20066
aI20102
aI20141
aI20177
aI20216
aI20257
aI20292
aI20330
aI20368
aI20402
aI20439
aI20477
aI20516
as.