(dp0
S't_log'
p1
(lp2
I60000
aI70000
aI80000
aI90000
aI100000
aI110000
aI120000
aI130000
aI140000
aI150000
aI160000
aI170000
aI180000
aI190000
aI200000
aI210000
aI220000
aI230000
aI240000
aI250000
aI260000
aI270000
aI280000
aI290000
aI300000
aI310000
aI320000
aI330000
aI340000
aI350000
aI360000
aI370000
aI380000
aI390000
aI400000
aI410000
aI420000
aI430000
aI440000
aI450000
aI460000
aI470000
aI480000
aI490000
aI500000
aI510000
aI520000
aI530000
aI540000
aI550000
aI560000
aI570000
aI580000
aI590000
aI600000
aI610000
aI620000
aI630000
aI640000
aI650000
aI660000
aI670000
aI680000
aI690000
aI700000
aI710000
aI720000
aI730000
aI740000
aI750000
aI760000
aI770000
aI780000
aI790000
aI800000
aI810000
aI820000
aI830000
aI840000
aI850000
aI860000
aI870000
aI880000
aI890000
aI900000
aI910000
aI920000
aI930000
aI940000
aI950000
aI960000
aI970000
aI980000
aI990000
aI1000000
aI1010000
aI1020000
aI1030000
aI1040000
aI1050000
aI1060000
aI1070000
aI1080000
aI1090000
aI1100000
aI1110000
aI1120000
aI1130000
aI1140000
aI1150000
aI1160000
aI1170000
aI1180000
aI1190000
aI1200000
aI1210000
aI1220000
aI1230000
aI1240000
aI1250000
aI1260000
aI1270000
aI1280000
aI1290000
aI1300000
aI1310000
aI1320000
aI1330000
aI1340000
aI1350000
aI1360000
aI1370000
aI1380000
aI1390000
aI1400000
asS'mean_reward_log'
p3
(lp4
cnumpy.core.multiarray
scalar
p5
(cnumpy
dtype
p6
(S'f8'
p7
I0
I1
tp8
Rp9
(I3
S'<'
p10
NNNI-1
I-1
I0
tp11
bS'333333\xd3?'
p12
tp13
Rp14
ag5
(g9
S'\x85\xebQ\xb8\x1e\x85\xdb?'
p15
tp16
Rp17
ag5
(g9
S'\n\xd7\xa3p=\n\xc7?'
p18
tp19
Rp20
ag5
(g9
S'H\xe1z\x14\xaeG\xd1?'
p21
tp22
Rp23
ag5
(g9
S'H\xe1z\x14\xaeG\xd1?'
p24
tp25
Rp26
ag5
(g9
S'\xb8\x1e\x85\xebQ\xb8\xce?'
p27
tp28
Rp29
ag5
(g9
S'\xe1z\x14\xaeG\xe1\xca?'
p30
tp31
Rp32
ag5
(g9
S'\xe1z\x14\xaeG\xe1\xca?'
p33
tp34
Rp35
ag5
(g9
S'R\xb8\x1e\x85\xebQ\xc8?'
p36
tp37
Rp38
ag5
(g9
S'\xa4p=\n\xd7\xa3\xd0?'
p39
tp40
Rp41
ag5
(g9
S'\xe1z\x14\xaeG\xe1\xca?'
p42
tp43
Rp44
ag5
(g9
S'\x00\x00\x00\x00\x00\x00\xd0?'
p45
tp46
Rp47
ag5
(g9
S'\xc3\xf5(\\\x8f\xc2\xc5?'
p48
tp49
Rp50
ag5
(g9
S')\\\x8f\xc2\xf5(\xcc?'
p51
tp52
Rp53
ag5
(g9
S'R\xb8\x1e\x85\xebQ\xc8?'
p54
tp55
Rp56
ag5
(g9
S'{\x14\xaeG\xe1z\xd4?'
p57
tp58
Rp59
ag5
(g9
S'\xecQ\xb8\x1e\x85\xeb\xd1?'
p60
tp61
Rp62
ag5
(g9
S'\xa4p=\n\xd7\xa3\xd0?'
p63
tp64
Rp65
ag5
(g9
S'H\xe1z\x14\xaeG\xd1?'
p66
tp67
Rp68
ag5
(g9
S'R\xb8\x1e\x85\xebQ\xc8?'
p69
tp70
Rp71
ag5
(g9
S'R\xb8\x1e\x85\xebQ\xc8?'
p72
tp73
Rp74
ag5
(g9
S'R\xb8\x1e\x85\xebQ\xc8?'
p75
tp76
Rp77
ag5
(g9
S'\xc3\xf5(\\\x8f\xc2\xc5?'
p78
tp79
Rp80
ag5
(g9
S'\xa4p=\n\xd7\xa3\xd0?'
p81
tp82
Rp83
ag5
(g9
S'\xc3\xf5(\\\x8f\xc2\xc5?'
p84
tp85
Rp86
ag5
(g9
S'333333\xc3?'
p87
tp88
Rp89
ag5
(g9
S'\xa4p=\n\xd7\xa3\xc0?'
p90
tp91
Rp92
ag5
(g9
S'\xecQ\xb8\x1e\x85\xeb\xc1?'
p93
tp94
Rp95
ag5
(g9
S'\xe1z\x14\xaeG\xe1\xca?'
p96
tp97
Rp98
ag5
(g9
S'333333\xc3?'
p99
tp100
Rp101
ag5
(g9
S'\x8f\xc2\xf5(\\\x8f\xd2?'
p102
tp103
Rp104
ag5
(g9
S'{\x14\xaeG\xe1z\xc4?'
p105
tp106
Rp107
ag5
(g9
S'R\xb8\x1e\x85\xebQ\xc8?'
p108
tp109
Rp110
ag5
(g9
S')\\\x8f\xc2\xf5(\xcc?'
p111
tp112
Rp113
ag5
(g9
S'\x9a\x99\x99\x99\x99\x99\xc9?'
p114
tp115
Rp116
ag5
(g9
S'\n\xd7\xa3p=\n\xc7?'
p117
tp118
Rp119
ag5
(g9
S'\n\xd7\xa3p=\n\xc7?'
p120
tp121
Rp122
ag5
(g9
S'\n\xd7\xa3p=\n\xc7?'
p123
tp124
Rp125
ag5
(g9
S'\xb8\x1e\x85\xebQ\xb8\xbe?'
p126
tp127
Rp128
ag5
(g9
S'\x9a\x99\x99\x99\x99\x99\xc9?'
p129
tp130
Rp131
ag5
(g9
S'\x9a\x99\x99\x99\x99\x99\xc9?'
p132
tp133
Rp134
ag5
(g9
S'\xe1z\x14\xaeG\xe1\xca?'
p135
tp136
Rp137
ag5
(g9
S'{\x14\xaeG\xe1z\xc4?'
p138
tp139
Rp140
ag5
(g9
S')\\\x8f\xc2\xf5(\xbc?'
p141
tp142
Rp143
ag5
(g9
S'\xecQ\xb8\x1e\x85\xeb\xc1?'
p144
tp145
Rp146
ag5
(g9
S'\n\xd7\xa3p=\n\xc7?'
p147
tp148
Rp149
ag5
(g9
S'\xb8\x1e\x85\xebQ\xb8\xbe?'
p150
tp151
Rp152
ag5
(g9
S'\xc3\xf5(\\\x8f\xc2\xc5?'
p153
tp154
Rp155
ag5
(g9
S'\xb8\x1e\x85\xebQ\xb8\xbe?'
p156
tp157
Rp158
ag5
(g9
S'\xc3\xf5(\\\x8f\xc2\xc5?'
p159
tp160
Rp161
ag5
(g9
S'333333\xc3?'
p162
tp163
Rp164
ag5
(g9
S'333333\xc3?'
p165
tp166
Rp167
ag5
(g9
S'\xb8\x1e\x85\xebQ\xb8\xbe?'
p168
tp169
Rp170
ag5
(g9
S'\x9a\x99\x99\x99\x99\x99\xb9?'
p171
tp172
Rp173
ag5
(g9
S'\xa4p=\n\xd7\xa3\xc0?'
p174
tp175
Rp176
ag5
(g9
S'\xb8\x1e\x85\xebQ\xb8\xbe?'
p177
tp178
Rp179
ag5
(g9
S'\xb8\x1e\x85\xebQ\xb8\xbe?'
p180
tp181
Rp182
ag5
(g9
S'\x9a\x99\x99\x99\x99\x99\xb9?'
p183
tp184
Rp185
ag5
(g9
S'\n\xd7\xa3p=\n\xc7?'
p186
tp187
Rp188
ag5
(g9
S'\xe1z\x14\xaeG\xe1\xca?'
p189
tp190
Rp191
ag5
(g9
S')\\\x8f\xc2\xf5(\xbc?'
p192
tp193
Rp194
ag5
(g9
S'333333\xc3?'
p195
tp196
Rp197
ag5
(g9
S'\xa4p=\n\xd7\xa3\xc0?'
p198
tp199
Rp200
ag5
(g9
S'\xa4p=\n\xd7\xa3\xc0?'
p201
tp202
Rp203
ag5
(g9
S'{\x14\xaeG\xe1z\xc4?'
p204
tp205
Rp206
ag5
(g9
S'\xe1z\x14\xaeG\xe1\xca?'
p207
tp208
Rp209
ag5
(g9
S')\\\x8f\xc2\xf5(\xbc?'
p210
tp211
Rp212
ag5
(g9
S'333333\xc3?'
p213
tp214
Rp215
ag5
(g9
S'\x9a\x99\x99\x99\x99\x99\xc9?'
p216
tp217
Rp218
ag5
(g9
S'\x9a\x99\x99\x99\x99\x99\xb9?'
p219
tp220
Rp221
ag5
(g9
S'\xecQ\xb8\x1e\x85\xeb\xc1?'
p222
tp223
Rp224
ag5
(g9
S'\xecQ\xb8\x1e\x85\xeb\xc1?'
p225
tp226
Rp227
ag5
(g9
S'\xb8\x1e\x85\xebQ\xb8\xbe?'
p228
tp229
Rp230
ag5
(g9
S'\xecQ\xb8\x1e\x85\xeb\xc1?'
p231
tp232
Rp233
ag5
(g9
S'\n\xd7\xa3p=\n\xb7?'
p234
tp235
Rp236
ag5
(g9
S'\xecQ\xb8\x1e\x85\xeb\xb1?'
p237
tp238
Rp239
ag5
(g9
S'\xecQ\xb8\x1e\x85\xeb\xc1?'
p240
tp241
Rp242
ag5
(g9
S'\xb8\x1e\x85\xebQ\xb8\xae?'
p243
tp244
Rp245
ag5
(g9
S'\n\xd7\xa3p=\n\xb7?'
p246
tp247
Rp248
ag5
(g9
S'\n\xd7\xa3p=\n\xb7?'
p249
tp250
Rp251
ag5
(g9
S'{\x14\xaeG\xe1z\xc4?'
p252
tp253
Rp254
ag5
(g9
S'\xa4p=\n\xd7\xa3\xc0?'
p255
tp256
Rp257
ag5
(g9
S'\x9a\x99\x99\x99\x99\x99\xb9?'
p258
tp259
Rp260
ag5
(g9
S'\xb8\x1e\x85\xebQ\xb8\xbe?'
p261
tp262
Rp263
ag5
(g9
S'{\x14\xaeG\xe1z\xb4?'
p264
tp265
Rp266
ag5
(g9
S'\xb8\x1e\x85\xebQ\xb8\xbe?'
p267
tp268
Rp269
ag5
(g9
S'\n\xd7\xa3p=\n\xb7?'
p270
tp271
Rp272
ag5
(g9
S'{\x14\xaeG\xe1z\xb4?'
p273
tp274
Rp275
ag5
(g9
S'{\x14\xaeG\xe1z\xb4?'
p276
tp277
Rp278
ag5
(g9
S'\x9a\x99\x99\x99\x99\x99\xb9?'
p279
tp280
Rp281
ag5
(g9
S'\xb8\x1e\x85\xebQ\xb8\xbe?'
p282
tp283
Rp284
ag5
(g9
S'{\x14\xaeG\xe1z\xb4?'
p285
tp286
Rp287
ag5
(g9
S'\xecQ\xb8\x1e\x85\xeb\xb1?'
p288
tp289
Rp290
ag5
(g9
S'333333\xc3?'
p291
tp292
Rp293
ag5
(g9
S'\xecQ\xb8\x1e\x85\xeb\xb1?'
p294
tp295
Rp296
ag5
(g9
S'\xb8\x1e\x85\xebQ\xb8\xbe?'
p297
tp298
Rp299
ag5
(g9
S'\x9a\x99\x99\x99\x99\x99\xa9?'
p300
tp301
Rp302
ag5
(g9
S'\xa4p=\n\xd7\xa3\xc0?'
p303
tp304
Rp305
ag5
(g9
S'\x9a\x99\x99\x99\x99\x99\xb9?'
p306
tp307
Rp308
ag5
(g9
S'{\x14\xaeG\xe1z\xa4?'
p309
tp310
Rp311
ag5
(g9
S'\xecQ\xb8\x1e\x85\xeb\xb1?'
p312
tp313
Rp314
ag5
(g9
S'{\x14\xaeG\xe1z\xa4?'
p315
tp316
Rp317
ag5
(g9
S'\xa4p=\n\xd7\xa3\xc0?'
p318
tp319
Rp320
ag5
(g9
S'\xb8\x1e\x85\xebQ\xb8\xbe?'
p321
tp322
Rp323
ag5
(g9
S'{\x14\xaeG\xe1z\xa4?'
p324
tp325
Rp326
ag5
(g9
S'\xb8\x1e\x85\xebQ\xb8\xae?'
p327
tp328
Rp329
ag5
(g9
S'333333\xc3?'
p330
tp331
Rp332
ag5
(g9
S'\xb8\x1e\x85\xebQ\xb8\xae?'
p333
tp334
Rp335
ag5
(g9
S'{\x14\xaeG\xe1z\xa4?'
p336
tp337
Rp338
ag5
(g9
S'\xb8\x1e\x85\xebQ\xb8\x9e?'
p339
tp340
Rp341
ag5
(g9
S'\n\xd7\xa3p=\n\xb7?'
p342
tp343
Rp344
ag5
(g9
S'\xb8\x1e\x85\xebQ\xb8\xbe?'
p345
tp346
Rp347
ag5
(g9
S'\xb8\x1e\x85\xebQ\xb8\xbe?'
p348
tp349
Rp350
ag5
(g9
S'{\x14\xaeG\xe1z\xb4?'
p351
tp352
Rp353
ag5
(g9
S'\xb8\x1e\x85\xebQ\xb8\xae?'
p354
tp355
Rp356
ag5
(g9
S')\\\x8f\xc2\xf5(\xbc?'
p357
tp358
Rp359
ag5
(g9
S'\xb8\x1e\x85\xebQ\xb8\xbe?'
p360
tp361
Rp362
ag5
(g9
S'\x9a\x99\x99\x99\x99\x99\xa9?'
p363
tp364
Rp365
ag5
(g9
S'\xb8\x1e\x85\xebQ\xb8\x9e?'
p366
tp367
Rp368
ag5
(g9
S'\xb8\x1e\x85\xebQ\xb8\xae?'
p369
tp370
Rp371
ag5
(g9
S'\x9a\x99\x99\x99\x99\x99\xa9?'
p372
tp373
Rp374
ag5
(g9
S'{\x14\xaeG\xe1z\x94?'
p375
tp376
Rp377
ag5
(g9
S'\xecQ\xb8\x1e\x85\xeb\xb1?'
p378
tp379
Rp380
ag5
(g9
S'\xb8\x1e\x85\xebQ\xb8\xae?'
p381
tp382
Rp383
ag5
(g9
S'{\x14\xaeG\xe1z\xa4?'
p384
tp385
Rp386
ag5
(g9
S'\xb8\x1e\x85\xebQ\xb8\xae?'
p387
tp388
Rp389
ag5
(g9
S'\xb8\x1e\x85\xebQ\xb8\x9e?'
p390
tp391
Rp392
ag5
(g9
S'\xecQ\xb8\x1e\x85\xeb\xb1?'
p393
tp394
Rp395
ag5
(g9
S'{\x14\xaeG\xe1z\xb4?'
p396
tp397
Rp398
ag5
(g9
S'\xe1z\x14\xaeG\xe1\xca?'
p399
tp400
Rp401
ag5
(g9
S')\\\x8f\xc2\xf5(\xbc?'
p402
tp403
Rp404
ag5
(g9
S'{\x14\xaeG\xe1z\xb4?'
p405
tp406
Rp407
ag5
(g9
S'\xb8\x1e\x85\xebQ\xb8\xae?'
p408
tp409
Rp410
ag5
(g9
S'{\x14\xaeG\xe1z\xb4?'
p411
tp412
Rp413
ag5
(g9
S'\xb8\x1e\x85\xebQ\xb8\xae?'
p414
tp415
Rp416
asS'diff'
p417
(lp418
I0
aI408
aI905
aI1455
aI2109
aI2788
aI3547
aI4380
aI5255
aI6160
aI7109
aI8133
aI9289
aI10512
aI11763
aI13176
aI14589
aI16145
aI17728
aI19378
aI21078
aI22892
aI24758
aI26687
aI28767
aI30831
aI32990
aI35287
aI37590
aI39988
aI42426
aI44959
aI47543
aI50265
aI52988
aI55768
aI58597
aI61489
aI64437
aI67400
aI70437
aI73488
aI76686
aI79926
aI83168
aI86526
aI89931
aI93374
aI96891
aI100509
aI104209
aI107938
aI111799
aI115525
aI119517
aI123517
aI127645
aI131715
aI135830
aI139854
aI144017
aI148274
aI152594
aI157092
aI161499
aI165877
aI170425
aI175013
aI179629
aI184332
aI189173
aI194025
aI198930
aI203792
aI208835
aI213923
aI219102
aI224149
aI229447
aI234864
aI240330
aI245937
aI251518
aI257135
aI262773
aI268412
aI274107
aI279783
aI285702
aI291646
aI297577
aI303614
aI309694
aI316033
aI322363
aI328796
aI335112
aI341569
aI347930
aI354228
aI360564
aI367018
aI373620
aI379992
aI386513
aI392889
aI399316
aI405758
aI412331
aI418929
aI425607
aI432083
aI438657
aI445193
aI451582
aI458004
aI464493
aI471122
aI477714
aI484390
aI491163
aI497575
aI504105
aI510557
aI517195
aI523814
aI530543
aI537273
aI543909
aI550598
aI557401
aI564114
aI570823
aI577630
aI584323
aI591029
asS'exploration_log'
p419
(lp420
F0.946
aF0.9369999999999999
aF0.9279999999999999
aF0.919
aF0.91
aF0.901
aF0.892
aF0.883
aF0.874
aF0.865
aF0.856
aF0.847
aF0.838
aF0.829
aF0.82
aF0.8109999999999999
aF0.802
aF0.7929999999999999
aF0.784
aF0.775
aF0.766
aF0.757
aF0.748
aF0.739
aF0.73
aF0.721
aF0.712
aF0.703
aF0.694
aF0.685
aF0.6759999999999999
aF0.667
aF0.6579999999999999
aF0.649
aF0.6399999999999999
aF0.631
aF0.622
aF0.613
aF0.604
aF0.595
aF0.586
aF0.577
aF0.5680000000000001
aF0.5589999999999999
aF0.55
aF0.5409999999999999
aF0.532
aF0.5229999999999999
aF0.514
aF0.5049999999999999
aF0.4959999999999999
aF0.487
aF0.478
aF0.469
aF0.45999999999999996
aF0.45099999999999996
aF0.44199999999999995
aF0.43299999999999994
aF0.42399999999999993
aF0.4149999999999999
aF0.4059999999999999
aF0.3969999999999999
aF0.3879999999999999
aF0.379
aF0.37
aF0.361
aF0.352
aF0.34299999999999997
aF0.33399999999999996
aF0.32499999999999996
aF0.31599999999999995
aF0.30699999999999994
aF0.29799999999999993
aF0.2889999999999999
aF0.2799999999999999
aF0.2709999999999999
aF0.262
aF0.253
aF0.244
aF0.235
aF0.22599999999999998
aF0.21699999999999997
aF0.20799999999999996
aF0.19899999999999995
aF0.18999999999999995
aF0.18099999999999994
aF0.17199999999999993
aF0.16299999999999992
aF0.15400000000000003
aF0.14500000000000002
aF0.136
aF0.127
aF0.118
aF0.10899999999999999
aF0.1
aF0.099775
aF0.09955
aF0.09932500000000001
aF0.09910000000000001
aF0.098875
aF0.09865
aF0.098425
aF0.09820000000000001
aF0.097975
aF0.09775
aF0.097525
aF0.09730000000000001
aF0.09707500000000001
aF0.09685
aF0.096625
aF0.0964
aF0.09617500000000001
aF0.09595000000000001
aF0.095725
aF0.0955
aF0.095275
aF0.09505000000000001
aF0.094825
aF0.0946
aF0.094375
aF0.09415000000000001
aF0.09392500000000001
aF0.0937
aF0.093475
aF0.09325
aF0.09302500000000001
aF0.09280000000000001
aF0.092575
aF0.09235
aF0.09212500000000001
aF0.09190000000000001
aF0.091675
aF0.09145
aF0.091225
aF0.091
asS'best_mean_log'
p421
(lp422
g5
(g9
S'q=\n\xd7\xa3p\xdd?'
p423
tp424
Rp425
ag5
(g9
S'R\xb8\x1e\x85\xebQ\xe0?'
p426
tp427
Rp428
ag428
ag428
ag428
ag428
ag428
ag428
ag428
ag428
ag428
ag428
ag428
ag428
ag428
ag428
ag428
ag428
ag428
ag428
ag428
ag428
ag428
ag428
ag428
ag428
ag428
ag428
ag428
ag428
ag428
ag428
ag428
ag428
ag428
ag428
ag428
ag428
ag428
ag428
ag428
ag428
ag428
ag428
ag428
ag428
ag428
ag428
ag428
ag428
ag428
ag428
ag428
ag428
ag428
ag428
ag428
ag428
ag428
ag428
ag428
ag428
ag428
ag428
ag428
ag428
ag428
ag428
ag428
ag428
ag428
ag428
ag428
ag428
ag428
ag428
ag428
ag428
ag428
ag428
ag428
ag428
ag428
ag428
ag428
ag428
ag428
ag428
ag428
ag428
ag428
ag428
ag428
ag428
ag428
ag428
ag428
ag428
ag428
ag428
ag428
ag428
ag428
ag428
ag428
ag428
ag428
ag428
ag428
ag428
ag428
ag428
ag428
ag428
ag428
ag428
ag428
ag428
ag428
ag428
ag428
ag428
ag428
ag428
ag428
ag428
ag428
ag428
ag428
ag428
ag428
ag428
ag428
ag428
ag428
asS'episodes_log'
p429
(lp430
I1741
aI2001
aI2305
aI2611
aI2918
aI3238
aI3561
aI3885
aI4233
aI4551
aI4882
aI5224
aI5533
aI5886
aI6250
aI6564
aI6891
aI7223
aI7588
aI7948
aI8309
aI8674
aI9020
aI9364
aI9760
aI10112
aI10499
aI10875
aI11279
aI11645
aI12013
aI12413
aI12823
aI13193
aI13569
aI13952
aI14364
aI14762
aI15144
aI15578
aI16013
aI16442
aI16869
aI17319
aI17771
aI18209
aI18669
aI19150
aI19612
aI20102
aI20590
aI21087
aI21599
aI22082
aI22605
aI23145
aI23684
aI24225
aI24755
aI25274
aI25827
aI26374
aI26931
aI27496
aI28091
aI28667
aI29269
aI29845
aI30417
aI31017
aI31611
aI32219
aI32828
aI33424
aI34023
aI34625
aI35200
aI35807
aI36431
aI37041
aI37636
aI38195
aI38797
aI39374
aI39967
aI40545
aI41097
aI41603
aI42158
aI42695
aI43257
aI43803
aI44344
aI44865
aI45411
aI45937
aI46477
aI47023
aI47548
aI48102
aI48652
aI49205
aI49762
aI50290
aI50825
aI51350
aI51865
aI52411
aI52975
aI53543
aI54075
aI54621
aI55205
aI55773
aI56298
aI56840
aI57315
aI57826
aI58365
aI58910
aI59447
aI60009
aI60562
aI61145
aI61719
aI62322
aI62857
aI63412
aI63968
aI64499
aI65053
aI65600
aI66141
aI66694
aI67233
asS'same'
p431
(lp432
I0
aI74
aI160
aI272
aI411
aI558
aI723
aI953
aI1192
aI1471
aI1775
aI2083
aI2445
aI2793
aI3192
aI3600
aI4031
aI4416
aI4809
aI5270
aI5730
aI6257
aI6753
aI7305
aI7849
aI8401
aI8959
aI9546
aI10120
aI10709
aI11322
aI11972
aI12686
aI13396
aI14176
aI14959
aI15794
aI16613
aI17514
aI18425
aI19366
aI20417
aI21447
aI22581
aI23684
aI24820
aI25951
aI27077
aI28266
aI29521
aI30732
aI32040
aI33313
aI34617
aI35955
aI37280
aI38637
aI40095
aI41566
aI43225
aI44930
aI46556
aI48259
aI49880
aI51630
aI53470
aI55291
aI57182
aI59023
aI60953
aI62830
aI64771
aI66720
aI68811
aI70842
aI72854
aI74937
aI77251
aI79378
aI81461
aI83605
aI85736
aI87922
aI90179
aI92537
aI94945
aI97489
aI100093
aI102506
aI104996
aI107612
aI110149
aI112737
aI115203
aI117745
aI120330
aI122950
aI125478
aI128118
aI130811
aI133477
aI136011
aI138384
aI140986
aI143504
aI146113
aI148690
aI151275
aI153769
aI156244
aI158622
aI161217
aI163670
aI166173
aI168819
aI171460
aI174009
aI176397
aI178892
aI181287
aI183544
aI186127
aI188661
aI191260
aI193703
aI196092
aI198462
aI200784
aI203221
aI205577
aI207891
aI210223
aI212570
aI214867
aI217252
aI219626
asS'learning_rate_log'
p433
(lp434
F0.0001
aF0.0001
aF0.0001
aF0.0001
aF0.0001
aF0.0001
aF0.0001
aF0.0001
aF0.0001
aF0.0001
aF0.0001
aF0.0001
aF0.0001
aF0.0001
aF0.0001
aF0.0001
aF0.0001
aF0.0001
aF0.0001
aF0.0001
aF0.0001
aF0.0001
aF0.0001
aF0.0001
aF0.0001
aF0.0001
aF0.0001
aF0.0001
aF0.0001
aF0.0001
aF0.0001
aF0.0001
aF0.0001
aF0.0001
aF0.0001
aF0.0001
aF0.0001
aF0.0001
aF0.0001
aF0.0001
aF0.0001
aF0.0001
aF0.0001
aF0.0001
aF0.0001
aF0.0001
aF0.0001
aF0.0001
aF0.0001
aF0.0001
aF0.0001
aF0.0001
aF0.0001
aF0.0001
aF0.0001
aF0.0001
aF0.0001
aF0.0001
aF0.0001
aF0.0001
aF0.0001
aF0.0001
aF0.0001
aF0.0001
aF0.0001
aF0.0001
aF0.0001
aF0.0001
aF0.0001
aF0.0001
aF0.0001
aF0.0001
aF0.0001
aF0.0001
aF0.0001
aF0.0001
aF0.0001
aF0.0001
aF0.0001
aF0.0001
aF0.0001
aF0.0001
aF0.0001
aF0.0001
aF0.0001
aF0.0001
aF0.0001
aF0.0001
aF0.0001
aF0.0001
aF0.0001
aF0.0001
aF0.0001
aF0.0001
aF0.0001
aF9.9875e-05
aF9.975e-05
aF9.962500000000001e-05
aF9.95e-05
aF9.9375e-05
aF9.925e-05
aF9.912500000000001e-05
aF9.900000000000001e-05
aF9.8875e-05
aF9.875e-05
aF9.8625e-05
aF9.850000000000001e-05
aF9.8375e-05
aF9.825e-05
aF9.8125e-05
aF9.800000000000001e-05
aF9.787500000000001e-05
aF9.775e-05
aF9.7625e-05
aF9.75e-05
aF9.737500000000001e-05
aF9.725e-05
aF9.7125e-05
aF9.7e-05
aF9.687500000000001e-05
aF9.675000000000001e-05
aF9.6625e-05
aF9.65e-05
aF9.6375e-05
aF9.625000000000001e-05
aF9.6125e-05
aF9.6e-05
aF9.5875e-05
aF9.575000000000001e-05
aF9.562500000000001e-05
aF9.55e-05
aF9.5375e-05
aF9.525000000000001e-05
aF9.512500000000001e-05
aF9.5e-05
as.