(dp0
S't_log'
p1
(lp2
I60000
aI70000
aI80000
aI90000
aI100000
aI110000
aI120000
aI130000
aI140000
aI150000
aI160000
aI170000
aI180000
aI190000
aI200000
aI210000
aI220000
aI230000
aI240000
aI250000
aI260000
aI270000
aI280000
aI290000
aI300000
aI310000
aI320000
aI330000
aI340000
aI350000
aI360000
aI370000
aI380000
aI390000
aI400000
aI410000
aI420000
aI430000
aI440000
aI450000
aI460000
aI470000
aI480000
aI490000
aI500000
aI510000
aI520000
aI530000
aI540000
aI550000
aI560000
aI570000
aI580000
aI590000
aI600000
asS'mean_reward_log'
p3
(lp4
cnumpy.core.multiarray
scalar
p5
(cnumpy
dtype
p6
(S'f8'
p7
I0
I1
tp8
Rp9
(I3
S'<'
p10
NNNI-1
I-1
I0
tp11
bS'\x8f\xc2\xf5(\\\x8f\x06@'
p12
tp13
Rp14
ag5
(g9
S'{\x14\xaeG\xe1z\x02@'
p15
tp16
Rp17
ag5
(g9
S'\xf6(\\\x8f\xc2\xf5\x02@'
p18
tp19
Rp20
ag5
(g9
S'ffffff\x00@'
p21
tp22
Rp23
ag5
(g9
S'\xb8\x1e\x85\xebQ\xb8\x00@'
p24
tp25
Rp26
ag5
(g9
S'H\xe1z\x14\xaeG\x01@'
p27
tp28
Rp29
ag5
(g9
S'R\xb8\x1e\x85\xebQ\x02@'
p30
tp31
Rp32
ag5
(g9
S'\x00\x00\x00\x00\x00\x00\x02@'
p33
tp34
Rp35
ag5
(g9
S'\x85\xebQ\xb8\x1e\x85\x03@'
p36
tp37
Rp38
ag5
(g9
S'H\xe1z\x14\xaeG\x01@'
p39
tp40
Rp41
ag5
(g9
S'\xcd\xcc\xcc\xcc\xcc\xcc\x02@'
p42
tp43
Rp44
ag5
(g9
S'R\xb8\x1e\x85\xebQ\x02@'
p45
tp46
Rp47
ag5
(g9
S'\xb8\x1e\x85\xebQ\xb8\x02@'
p48
tp49
Rp50
ag5
(g9
S'\n\xd7\xa3p=\n\x03@'
p51
tp52
Rp53
ag5
(g9
S'\x8f\xc2\xf5(\\\x8f\x02@'
p54
tp55
Rp56
ag5
(g9
S'ffffff\x00@'
p57
tp58
Rp59
ag5
(g9
S'\xd7\xa3p=\n\xd7\x01@'
p60
tp61
Rp62
ag5
(g9
S'\x00\x00\x00\x00\x00\x00\x02@'
p63
tp64
Rp65
ag5
(g9
S'\xb8\x1e\x85\xebQ\xb8\x02@'
p66
tp67
Rp68
ag5
(g9
S'q=\n\xd7\xa3p\x01@'
p69
tp70
Rp71
ag5
(g9
S'\x14\xaeG\xe1z\x14\xfe?'
p72
tp73
Rp74
ag5
(g9
S'\\\x8f\xc2\xf5(\\\xfb?'
p75
tp76
Rp77
ag5
(g9
S'\x85\xebQ\xb8\x1e\x85\xfb?'
p78
tp79
Rp80
ag5
(g9
S'{\x14\xaeG\xe1z\x00@'
p81
tp82
Rp83
ag5
(g9
S'333333\x03@'
p84
tp85
Rp86
ag5
(g9
S'\xc3\xf5(\\\x8f\xc2\x01@'
p87
tp88
Rp89
ag5
(g9
S'\xd7\xa3p=\n\xd7\x01@'
p90
tp91
Rp92
ag5
(g9
S'\xd7\xa3p=\n\xd7\xff?'
p93
tp94
Rp95
ag5
(g9
S'H\xe1z\x14\xaeG\xfd?'
p96
tp97
Rp98
ag5
(g9
S'\xb8\x1e\x85\xebQ\xb8\xfe?'
p99
tp100
Rp101
ag5
(g9
S'\x8f\xc2\xf5(\\\x8f\xfe?'
p102
tp103
Rp104
ag5
(g9
S'\xc3\xf5(\\\x8f\xc2\xfd?'
p105
tp106
Rp107
ag5
(g9
S'\xcd\xcc\xcc\xcc\xcc\xcc\xfc?'
p108
tp109
Rp110
ag5
(g9
S'\\\x8f\xc2\xf5(\\\xfb?'
p111
tp112
Rp113
ag5
(g9
S'\xecQ\xb8\x1e\x85\xeb\xfd?'
p114
tp115
Rp116
ag5
(g9
S'\xcd\xcc\xcc\xcc\xcc\xcc\xfc?'
p117
tp118
Rp119
ag5
(g9
S')\\\x8f\xc2\xf5(\xf8?'
p120
tp121
Rp122
ag5
(g9
S'\xd7\xa3p=\n\xd7\xf3?'
p123
tp124
Rp125
ag5
(g9
S'\xcd\xcc\xcc\xcc\xcc\xcc\xf4?'
p126
tp127
Rp128
ag5
(g9
S'\xf6(\\\x8f\xc2\xf5\xf8?'
p129
tp130
Rp131
ag5
(g9
S'\x9a\x99\x99\x99\x99\x99\xf9?'
p132
tp133
Rp134
ag5
(g9
S'\x14\xaeG\xe1z\x14\xf6?'
p135
tp136
Rp137
ag5
(g9
S'ffffff\xf6?'
p138
tp139
Rp140
ag5
(g9
S'\x1f\x85\xebQ\xb8\x1e\xf5?'
p141
tp142
Rp143
ag5
(g9
S'\x9a\x99\x99\x99\x99\x99\xf1?'
p144
tp145
Rp146
ag5
(g9
S'\xe1z\x14\xaeG\xe1\xf2?'
p147
tp148
Rp149
ag5
(g9
S'R\xb8\x1e\x85\xebQ\xf4?'
p150
tp151
Rp152
ag5
(g9
S'\x00\x00\x00\x00\x00\x00\xf4?'
p153
tp154
Rp155
ag5
(g9
S'\xe1z\x14\xaeG\xe1\xf2?'
p156
tp157
Rp158
ag5
(g9
S'H\xe1z\x14\xaeG\xf1?'
p159
tp160
Rp161
ag5
(g9
S'\\\x8f\xc2\xf5(\\\xef?'
p162
tp163
Rp164
ag5
(g9
S'\x1f\x85\xebQ\xb8\x1e\xf1?'
p165
tp166
Rp167
ag5
(g9
S')\\\x8f\xc2\xf5(\xf4?'
p168
tp169
Rp170
ag5
(g9
S'\x1f\x85\xebQ\xb8\x1e\xf1?'
p171
tp172
Rp173
ag5
(g9
S'\x1f\x85\xebQ\xb8\x1e\xed?'
p174
tp175
Rp176
asS'diff'
p177
(lp178
I0
asS'exploration_log'
p179
(lp180
F0.946
aF0.9369999999999999
aF0.9279999999999999
aF0.919
aF0.91
aF0.901
aF0.892
aF0.883
aF0.874
aF0.865
aF0.856
aF0.847
aF0.838
aF0.829
aF0.82
aF0.8109999999999999
aF0.802
aF0.7929999999999999
aF0.784
aF0.775
aF0.766
aF0.757
aF0.748
aF0.739
aF0.73
aF0.721
aF0.712
aF0.703
aF0.694
aF0.685
aF0.6759999999999999
aF0.667
aF0.6579999999999999
aF0.649
aF0.6399999999999999
aF0.631
aF0.622
aF0.613
aF0.604
aF0.595
aF0.586
aF0.577
aF0.5680000000000001
aF0.5589999999999999
aF0.55
aF0.5409999999999999
aF0.532
aF0.5229999999999999
aF0.514
aF0.5049999999999999
aF0.4959999999999999
aF0.487
aF0.478
aF0.469
aF0.45999999999999996
asS'best_mean_log'
p181
(lp182
g5
(g9
S'\x1f\x85\xebQ\xb8\x1e\x07@'
p183
tp184
Rp185
ag185
ag185
ag185
ag185
ag185
ag185
ag185
ag185
ag185
ag185
ag185
ag185
ag185
ag185
ag185
ag185
ag185
ag185
ag185
ag185
ag185
ag185
ag185
ag185
ag185
ag185
ag185
ag185
ag185
ag185
ag185
ag185
ag185
ag185
ag185
ag185
ag185
ag185
ag185
ag185
ag185
ag185
ag185
ag185
ag185
ag185
ag185
ag185
ag185
ag185
ag185
ag185
ag185
ag185
asS'episodes_log'
p186
(lp187
I138
aI171
aI200
aI229
aI256
aI284
aI308
aI346
aI372
aI405
aI437
aI469
aI502
aI535
aI570
aI612
aI639
aI670
aI708
aI749
aI794
aI836
aI871
aI906
aI944
aI980
aI1021
aI1062
aI1106
aI1146
aI1188
aI1229
aI1272
aI1315
aI1357
aI1398
aI1446
aI1492
aI1544
aI1587
aI1638
aI1688
aI1738
aI1790
aI1843
aI1890
aI1942
aI1998
aI2051
aI2111
aI2164
aI2227
aI2281
aI2339
aI2401
asS'same'
p188
(lp189
I0
asS'learning_rate_log'
p190
(lp191
F0.0001
aF0.0001
aF0.0001
aF0.0001
aF0.0001
aF0.0001
aF0.0001
aF0.0001
aF0.0001
aF0.0001
aF0.0001
aF0.0001
aF0.0001
aF0.0001
aF0.0001
aF0.0001
aF0.0001
aF0.0001
aF0.0001
aF0.0001
aF0.0001
aF0.0001
aF0.0001
aF0.0001
aF0.0001
aF0.0001
aF0.0001
aF0.0001
aF0.0001
aF0.0001
aF0.0001
aF0.0001
aF0.0001
aF0.0001
aF0.0001
aF0.0001
aF0.0001
aF0.0001
aF0.0001
aF0.0001
aF0.0001
aF0.0001
aF0.0001
aF0.0001
aF0.0001
aF0.0001
aF0.0001
aF0.0001
aF0.0001
aF0.0001
aF0.0001
aF0.0001
aF0.0001
aF0.0001
aF0.0001
as.